
depend_Debug_CSR101x_A05/T2L.elf:     file format elf32-xap2

Disassembly of section .text:

0x00000010 <PROG_PATCH_ADDRESS>:
      10:	02AE      	ror        @(+0x2, x)
      11:	7F75      	nadd       al, @0x7F <L0+0x3>
      12:	2000      	**prefx    0x20
      13:	17DE      	xor        y, @(+0x2017, x)
      14:	DC20      	bgt        -0x24 <___libgatt_lib_db_1306+0x7FFFF0:0xFFFFF0[p]>
      15:	201E      	ld         y, @(+0x20, x)
      16:	19C6      	and        al, @(+0x19, x)
      17:	C720      	bgt        -0x39 <___libgatt_lib_db_1306+0x7FFFDE:0xFFFFDE[p]>
      18:	2014      	ld         al, #+0x20
      19:	55C1      	and        ah, @0x55 <___libgatt_lib_db_2574>
      1A:	C420      	bgt        -0x3C <___libgatt_lib_db_1306+0x7FFFDE:0xFFFFDE[p]>
      1B:	200A      	st         xh, @(+0x20, y)
      1C:	09C0      	and        ah, #0x9
      1D:	C220      	bgt        -0x3E <___libgatt_lib_db_1306+0x7FFFDF:0xFFFFDF[p]>
      1E:	804E      	addc       y, @(-0x80, x)
      1F:	21E6      	blt        +0x21, x
      20:	21C3      	and        ah, @(+0x21, y)
      21:	2196      	sdiv       @(+0x21, x)
      22:	416F      	subc       y, @(+0x41, y)
      23:	4111      	ld         ah, @0x41 <___libgatt_lib_db_224>
      24:	9057      	sub        al, @(-0x70, y)
      25:	3801      	st         flags, @(+0x38, y)
      26:	B4E0      	bra        -0x4C <___libgatt_lib_db_1306+0x7FFFDA:0xFFFFDA[p]>
      27:	02C2      	and        ah, @(+0x2, x)
      28:	0D80      	cmp        ah, #+0xD
      29:	C3B4      	or         al, #-0x3D
      2A:	8002      	st         ux, @(-0x80, y)
      2B:	B408      	**Unknown**
      2C:	02C4      	and        al, #0x2
      2D:	0380      	cmp        ah, #+0x3
      2E:	C6B4      	or         al, #-0x3A
      2F:	9022      	st         ah, @(-0x70, x)
      30:	E800      	**prefx    0xE8
      31:	70E0      	bra        -0x1790 <___libgatt_lib_db_1306+0x7FE8A1:0xFFE8A1[p]>
      32:	901C      	ld         y, #-0x70
      33:	E900      	**prefx    0xE9
      34:	70E0      	bra        -0x1690 <___libgatt_lib_db_1306+0x7FE9A4:0xFFE9A4[p]>
      35:	9016      	ld         al, @(-0x70, x)
      36:	6000      	**prefx    0x60
      37:	60E0      	bra        +0x6060 <___libgatt_lib_db_3843+0x81D:0x6097[p]>
      38:	2402      	st         ux, @(+0x24, y)
      39:	F802      	st         ux, @(-0x8, y)
      3A:	0290      	smult      #+0x2
      3B:	E058      	sub        x, #-0x20
      3C:	9028      	ble        -0x70 <___libgatt_lib_db_1306+0x7FFFCC:0xFFFFCC[p]>
      3D:	1802      	st         ux, @(+0x18, y)
      3E:	90F0      	bne        -0x70 <___libgatt_lib_db_1306+0x7FFFCE:0xFFFFCE[p]>
      3F:	1F02      	st         ux, @(+0x1F, y)
      40:	75F0      	bne        +0x75 <___libgatt_lib_db_4094:0xB5[p]>
      41:	10E8      	bpl        +0x10 <___libgatt_lib_db_2885:0x51[p]>
      42:	E875      	nadd       al, @0xFFE8 <(scratchpad)>
      43:	8000      	**prefx    0x80
      44:	809C      	bsr        -0x8080 <___libgatt_lib_db_1306+0x7F7FC4:0xFF7FC4[p]>
      45:	904E      	addc       y, @(-0x70, x)
      46:	E800      	**prefx    0xE8
      47:	B4E0      	bra        -0x184C <___libgatt_lib_db_1306+0x7FE7FB:0xFFE7FB[p]>
      48:	1706      	ld         ux, @(+0x17, y)
      49:	0290      	smult      #+0x2
      4A:	EA00      	**prefx    0xEA
      4B:	A3F0      	bne        -0x165D <___libgatt_lib_db_1306+0x7FE9EE:0xFFE9EE[p]>
      4C:	F0EB      	bpl        @(-0x10, y)
      4D:	E0A3      	asl        @(-0x20, y)
      4E:	A3F0      	bne        -0x5D <___libgatt_lib_db_1306+0x7FFFF1:0xFFFFF1[p]>
      4F:	F0E0      	bra        -0x10 <___libgatt_lib_db_2824:0x3F[p]>
      50:	E0A3      	asl        @(-0x20, y)
      51:	90F0      	bne        -0x70 <___libgatt_lib_db_1306+0x7FFFE1:0xFFFFE1[p]>
      52:	0702      	st         ux, @(+0x7, y)
      53:	80F0      	bne        -0x80 <___libgatt_lib_db_1306+0x7FFFD3:0xFFFFD3[p]>
      54:	9028      	ble        -0x70 <___libgatt_lib_db_1306+0x7FFFE4:0xFFFFE4[p]>
      55:	0002      	st         ux, @(0x0, y)
      56:	F8E0      	bra        -0x8 <UART_RATE_19K2:0x4E[p]>
      57:	9AC3      	and        ah, @(-0x66, y)
      58:	0670      	nadd       ah, #+0x6
      59:	E0A3      	asl        @(-0x20, y)
      5A:	9BF9      	bcc        @0xFF9B <___libgatt_lib_db_2743+0x11A>
      5B:	1960      	subc       ah, #+0x19
      5C:	0190      	smult      #+0x1
      5D:	E0D8      	xor        x, #0xFFE0
      5E:	9AC3      	and        ah, @(-0x66, y)
      5F:	A3FC      	bcs        -0x5D <___libgatt_lib_db_1076:0x2[p]>
      60:	9BE0      	bra        -0x65 <___libgatt_lib_db_1306+0x7FFFFB:0xFFFFFB[p]>
      61:	ECFD      	bcs        @0xFFEC <(scratchpad)>
      62:	9028      	ble        -0x70 <___libgatt_lib_db_1306+0x7FFFF2:0xFFFFF2[p]>
      63:	D801      	st         flags, @(-0x28, y)
      64:	EDF0      	bne        -0x13 <___libgatt_lib_db_2885:0x51[p]>
      65:	A339      	add        x, @0xFFA3 <___libgatt_lib_db_2743+0x122>
      66:	90F0      	bne        -0x70 <___libgatt_lib_db_1306+0x7FFFF6:0xFFFFF6[p]>
      67:	DF01      	st         flags, @(-0x21, y)
      68:	75F0      	bne        +0x75 <___libgatt_lib_db_460+0x1:0xDD[p]>
      69:	04C8      	and        x, #0x4
      6A:	C875      	nadd       al, @0xFFC8 <___libgatt_lib_db_2743+0x147>
      6B:	0100      	**prefx    0x1
      6C:	9003      	st         uy, @(+0x90, y)
      6D:	F001      	st         flags, @(-0x10, y)
      6E:	30E0      	bra        +0x30 <UART_RATE_38K4:0x9E[p]>
      6F:	25E0      	bra        +0x25 <___libgatt_lib_db_203:0x94[p]>
      70:	0190      	smult      #+0x1
      71:	E0D8      	xor        x, #0xFFE0
      72:	90F9      	bcc        @0xFF90 <___libgatt_lib_db_2743+0x10F>
      73:	7001      	st         flags, @(+0x70, y)
      74:	C3E0      	bra        -0x3D <___libgatt_lib_db_129:0x37[p]>
      75:	7099      	tst        @0x70 <___libgatt_lib_db_4057>
      76:	9018      	ld         x, #-0x70
      77:	D901      	st         flags, @(-0x27, y)
      78:	F9E0      	bra        -0x7 <___libgatt_lib_db_3993:0x71[p]>
      79:	0190      	smult      #+0x1
      7A:	E071      	nadd       ah, @0xFFE0 <register ah>
      7B:	99C3      	and        ah, @(-0x67, y)
      7C:	0B70      	nadd       ah, #+0xB
      7D:	0290      	smult      #+0x2
      7E:	E0F8      	bcc        -0x20 <___libgatt_lib_db_2586:0x5E[p]>
      7F:	0154      	sub        al, #+0x1
      80:	90F0      	bne        -0x70 <PROG_APPCODE_START:0x10[p]>
      81:	FF02      	st         ux, @(-0x1, y)
      82:	90F0      	bne        -0x70 <___libgatt_lib_db_2070:0x12[p]>
      83:	E800      	**prefx    0xE8
      84:	F8E0      	bra        -0x1808 <___libgatt_lib_db_1306+0x7FE87C:0xFFE87C[p]>
      85:	0290      	smult      #+0x2
      86:	E000      	**prefx    0xE0
      87:	B8FA      	bcc        -0x2048, x
      88:	0306      	ld         ux, @(+0x3, y)
      89:	0274      	nadd       al, #+0x2
      8A:	A3F0      	bne        -0x5D <___libgatt_lib_db_2509:0x2D[p]>
      8B:	FBE0      	bra        -0x5 <___libgatt_lib_db_4491:0x86[p]>
      8C:	06B8      	or         x, #+0x6
      8D:	7410      	ld         ah, #+0x74
      8E:	F000      	**prefx    0xF0
      8F:	E0A3      	asl        @(-0x1020, y)
      90:	A3F0      	bne        -0x5D <___libgatt_lib_db_2530:0x33[p]>
      91:	F0E0      	bra        -0x10 <___libgatt_lib_db_108:0x81[p]>
      92:	E0A3      	asl        @(-0x20, y)
      93:	90F0      	bne        -0x70 <___libgatt_lib_db_102:0x23[p]>
      94:	0702      	st         ux, @(+0x7, y)
      95:	90F0      	bne        -0x70 <___libgatt_lib_db_179:0x25[p]>
      96:	F001      	st         flags, @(-0x10, y)
      97:	30E0      	bra        +0x30 <___libgatt_lib_db_2924+0x1:0xC7[p]>
      98:	57E1      	bra        @0x57 <___libgatt_lib_db_2589>
      99:	D3D2      	xor        ah, @(-0x2D, x)
      9A:	A3F0      	bne        -0x5D <___libgatt_lib_db_2594:0x3D[p]>
      9B:	F0E0      	bra        -0x10 <___libgatt_lib_db_4318+0x1:0x8B[p]>
      9C:	E0A3      	asl        @(-0x20, y)
      9D:	0B54      	sub        al, #+0xB
      9E:	90F0      	bne        -0x70 <___libgatt_lib_db_2521:0x2E[p]>
      9F:	F701      	st         flags, @(-0x9, y)
      A0:	90F0      	bne        -0x70 <___libgatt_lib_db_130:0x30[p]>
      A1:	C002      	st         ux, @(-0x40, y)
      A2:	F8E0      	bra        -0x8 <___libgatt_lib_db_4378:0x9A[p]>
      A3:	E0A3      	asl        @(-0x20, y)
      A4:	A3F9      	bcc        @0xFFA3 <___libgatt_lib_db_2743+0x122>
      A5:	30E0      	bra        +0x30 <___libgatt_lib_db_239+0x2:0xD5[p]>
      A6:	07E6      	blt        +0x7, x
      A7:	E7D2      	xor        ah, @(-0x19, x)
      A8:	7BFA      	bcc        +0x7B, x
      A9:	80FF      	bcs        @(-0x80, y)
      AA:	C205      	ld         flags, @(-0x3E, y)
      AB:	FAE7      	blt        @(-0x6, y)
      AC:	007B      	nadd       x, @(0x0, y)
      AD:	0290      	smult      #+0x2
      AE:	E4C0      	and        ah, #0xFFE4
      AF:	A3F0      	bne        -0x5D <___libgatt_lib_db_122:0x52[p]>
      B0:	A3F0      	bne        -0x5D <___libgatt_lib_db_2573:0x53[p]>
      B1:	A3F0      	bne        -0x5D <___libgatt_lib_db_10:0x54[p]>
      B2:	A3F0      	bne        -0x5D <___libgatt_lib_db_2574:0x55[p]>
      B3:	A3F0      	bne        -0x5D <___libgatt_lib_db_2532:0x56[p]>
      B4:	F0A3      	asl        @(-0x10, y)
      B5:	90C3      	and        ah, @(-0x70, y)
      B6:	C001      	st         flags, @(-0x40, y)
      B7:	98E0      	bra        -0x68 <___libgatt_lib_db_20:0x4F[p]>
      B8:	A3F0      	bne        -0x5D <___libgatt_lib_db_2563:0x5B[p]>
      B9:	99E0      	bra        -0x67 <___libgatt_lib_db_122:0x52[p]>
      BA:	A3F0      	bne        -0x5D <___libgatt_lib_db_121:0x5D[p]>
      BB:	9AE0      	bra        -0x66 <___libgatt_lib_db_2574:0x55[p]>
      BC:	A3F0      	bne        -0x5D <___libgatt_lib_db_2528:0x5F[p]>
      BD:	9BE0      	bra        -0x65 <CSTORE_SIZE:0x58[p]>
      BE:	A3F0      	bne        -0x5D <___libgatt_lib_db_2556:0x61[p]>
      BF:	9BE0      	bra        -0x65 <___libgatt_lib_db_2564:0x5A[p]>
      C0:	A3F0      	bne        -0x5D <___libgatt_lib_db_249:0x63[p]>
      C1:	9BE0      	bra        -0x65 <___libgatt_lib_db_2547:0x5C[p]>
      C2:	A3F0      	bne        -0x5D <___libgatt_lib_db_2508:0x65[p]>
      C3:	C2F0      	bne        -0x3E <___libgatt_lib_db_4509:0x85[p]>
      C4:	75D3      	xor        ah, @(+0x75, y)
      C5:	02C8      	and        x, #0x2
      C6:	C875      	nadd       al, @0xFFC8 <___libgatt_lib_db_2743+0x147>
      C7:	0100      	**prefx    0x1
      C8:	9003      	st         uy, @(+0x90, y)
      C9:	F001      	st         flags, @(-0x10, y)
      CA:	30E0      	bra        +0x30 <___libgatt_lib_db_4622+0x4:0xFA[p]>
      CB:	18E5      	blt        @0x18 <___libgatt_lib_db_1364>
      CC:	0190      	smult      #+0x1
      CD:	E0A0      	asl        #0xFFE0
      CE:	A3F0      	bne        -0x5D <___libgatt_lib_db_3993:0x71[p]>
      CF:	F0E0      	bra        -0x10 <___libgatt_lib_db_136+0x1:0xBF[p]>
      D0:	E0A3      	asl        @(-0x20, y)
      D1:	A3F0      	bne        -0x5D <.LASFDE8:0x74[p]>
      D2:	F0E0      	bra        -0x10 <___libgatt_lib_db_2929:0xC2[p]>
      D3:	E0A3      	asl        @(-0x20, y)
      D4:	A3F0      	bne        -0x5D <___libgatt_lib_db_3936:0x77[p]>
      D5:	F0E0      	bra        -0x10 <___libgatt_lib_db_2931:0xC5[p]>
      D6:	0290      	smult      #+0x2
      D7:	F02F      	st         y, @(-0x10, y)
      D8:	C875      	nadd       al, @0xFFC8 <___libgatt_lib_db_2743+0x147>
      D9:	7501      	st         flags, @(+0x75, y)
      DA:	00C8      	and        x, #0x0
      DB:	0301      	st         flags, @(+0x3, y)
      DC:	0190      	smult      #+0x1
      DD:	E028      	ble        -0x20 <___libgatt_lib_db_4094+0x8:0xBD[p]>
      DE:	45B4      	or         al, #+0x45
      DF:	901E      	ld         y, @(-0x70, x)
      E0:	0000      	**prefx    0x0
      E1:	F0E0      	bra        -0x10 <___libgatt_lib_db_2933+0x2:0xD1[p]>
      E2:	A3FF      	bcs        @(-0x5D, y)
      E3:	F0E0      	bra        -0x10 <___libgatt_lib_db_239:0xD3[p]>
      E4:	90FE      	bcs        -0x70, x
      E5:	8000      	**prefx    0x80
      E6:	FDE0      	bra        -0x8003 <___libgatt_lib_db_1306+0x7F80E3:0xFF80E3[p]>
      E7:	E0A3      	asl        @(-0x20, y)
      E8:	EFFC      	bcs        -0x11 <___libgatt_lib_db_239+0x4:0xD7[p]>
      E9:	9DC3      	and        ah, @(-0x63, y)
      EA:	9CEE      	bmi        -0x64, x
      EB:	E730      	add        ah, #-0x19
      EC:	9004      	**Unknown**
      ED:	8700      	**prefx    0x87
      EE:	75F0      	bne        -0x788B <___libgatt_lib_db_1306+0x7F8863:0xFF8863[p]>
      EF:	10C8      	and        x, #0x10
      F0:	C875      	nadd       al, @0xFFC8 <___libgatt_lib_db_2743+0x147>
      F1:	0100      	**prefx    0x1
      F2:	9003      	st         uy, @(+0x90, y)
      F3:	E800      	**prefx    0xE8
      F4:	30E0      	bra        -0x17D0 <___libgatt_lib_db_1306+0x7FE924:0xFFE924[p]>
      F5:	3FE2      	bra        +0x3F, x
      F6:	0190      	smult      #+0x1
      F7:	E038      	add        x, #-0x20
      F8:	CAB4      	or         al, #-0x36
      F9:	8002      	st         ux, @(-0x80, y)
      FA:	B417      	ld         al, @(-0x4C, y)
      FB:	02C9      	and        x, @0x2 <___libgatt_lib_db_1076>
      FC:	1280      	cmp        ah, #+0x12
      FD:	CBB4      	or         al, #-0x35
      FE:	8002      	st         ux, @(-0x80, y)
      FF:	B40D      	rti        @(-0x4C, y)
     100:	02CC      	and        y, #0x2
     101:	0880      	cmp        ah, #+0x8
     102:	CDB4      	or         al, #-0x33
     103:	8002      	st         ux, @(-0x80, y)
     104:	B403      	st         uy, @(-0x4C, y)
     105:	1FAF      	ror        @(+0x1F, y)
     106:	0190      	smult      #+0x1
     107:	E0F0      	bne        -0x20 <ROMDATA_SIZE+0x1:0xE7[p]>
     108:	0444      	addc       al, #+0x4
     109:	A3F0      	bne        -0x5D <___libgatt_lib_db_2991:0xAC[p]>
     10A:	F0E0      	bra        -0x10 <___libgatt_lib_db_4622+0x4:0xFA[p]>
     10B:	E0A3      	asl        @(-0x20, y)
     10C:	90F0      	bne        -0x70 <.LASFDE0:0x9C[p]>
     10D:	F701      	st         flags, @(-0x9, y)
     10E:	90F0      	bne        -0x70 <UART_RATE_38K4:0x9E[p]>
     10F:	E800      	**prefx    0xE8
     110:	C2E0      	bra        -0x183E <___libgatt_lib_db_1306+0x7FE8D2:0xFFE8D2[p]>
     111:	F0E6      	blt        -0x10, x
     112:	E0A3      	asl        @(-0x20, y)
     113:	90F0      	bne        -0x70 <___libgatt_lib_db_2969:0xA3[p]>
     114:	EF00      	**prefx    0xEF
     115:	75F0      	bne        -0x108B <___libgatt_lib_db_1306+0x7FF08A:0xFFF08A[p]>
     116:	40E8      	bpl        +0x40 <.LASFDE16+0x2:0x156[p]>
     117:	E875      	nadd       al, @0xFFE8 <(scratchpad)>
     118:	0100      	**prefx    0x1
     119:	E503      	st         uy, @(+0xE5, y)
     11A:	607F      	nadd       y, @(+0x60, y)
     11B:	903A      	add        x, @(-0x70, x)
     11C:	2801      	st         flags, @(+0x28, y)
     11D:	4B74      	nadd       al, #+0x4B
     11E:	90F0      	bne        -0x70 <___libgatt_lib_db_2981+0x1:0xAE[p]>
     11F:	2F01      	st         flags, @(+0x2F, y)
     120:	75F0      	bne        +0x75 <.LVL4+0x3:0x195[p]>
     121:	007F      	nadd       y, @(0x0, y)
     122:	0290      	smult      #+0x2
     123:	E080      	cmp        ah, #-0x20
     124:	2323      	st         ah, @(+0x23, y)
     125:	90F8      	bcc        -0x70 <___libgatt_lib_db_4094:0xB5[p]>
     126:	4002      	st         ux, @(+0x40, y)
     127:	48E0      	bra        +0x48 <.LASFDE18+0x3:0x16F[p]>
     128:	0090      	smult      #+0x0
     129:	F0F0      	bne        -0x10 <.LASFDE10+0xD:0x119[p]>
     12A:	0090      	smult      #+0x0
     12B:	F0F7      	beq        @(-0x10, y)
     12C:	0290      	smult      #+0x2
     12D:	E098      	tst        #-0x20
     12E:	0190      	smult      #+0x1
     12F:	F0A8      	rol        #0xFFF0
     130:	E0A3      	asl        @(-0x20, y)
     131:	A3F0      	bne        -0x5D <___libgatt_lib_db_239+0x1:0xD4[p]>
     132:	F0E0      	bra        -0x10 <.LEFDE10+0x2:0x122[p]>
     133:	E0A3      	asl        @(-0x20, y)
     134:	A3F0      	bne        -0x5D <___libgatt_lib_db_239+0x4:0xD7[p]>
     135:	F0E0      	bra        -0x10 <.LASFDE12+0x1:0x125[p]>
     136:	E0A3      	asl        @(-0x20, y)
     137:	A3F0      	bne        -0x5D <.LEFDE4+0x2:0xDA[p]>
     138:	75F0      	bne        +0x75 <___libgatt_lib_db_4224+0x6:0x1AD[p]>
     139:	80C8      	and        x, #0xFF80
     13A:	C875      	nadd       al, @0xFFC8 <___libgatt_lib_db_2743+0x147>
     13B:	0100      	**prefx    0x1
     13C:	9003      	st         uy, @(+0x90, y)
     13D:	3801      	st         flags, @(+0x38, y)
     13E:	54E0      	bra        +0x54 <.LVL4:0x192[p]>
     13F:	B4FE      	bcs        -0x4C, x
     140:	45CA      	and        x, @(+0x45, x)
     141:	0290      	smult      #+0x2
     142:	E070      	nadd       ah, #-0x20
     143:	F5F9      	bcc        @0xFFF5 <(scratchpad)>
     144:	7582      	cmp        ah, @(+0x75, x)
     145:	0883      	cmp        ah, @(+0x8, y)
     146:	F4E0      	bra        -0xC <.LEFDE12+0x2:0x13A[p]>
     147:	0354      	sub        al, #+0x3
     148:	3560      	subc       ah, #+0x35
     149:	0090      	smult      #+0x0
     14A:	E060      	subc       ah, #-0x20
     14B:	2F60      	subc       ah, #+0x2F
     14C:	0224      	bge        +0x2 <.LASFDE14+0x12:0x14E[p]>
     14D:	90F8      	bcc        -0x70 <___libgatt_lib_db_460+0x1:0xDD[p]>
     14E:	7802      	st         ux, @(+0x78, y)
     14F:	60E0      	bra        +0x60 <.LVL2:0x1AF[p]>
     150:	9826      	st         al, @(-0x68, x)
     151:	2370      	nadd       ah, #+0x23
     152:	4774      	nadd       al, #+0x47
     153:	90F0      	bne        -0x70 <___libgatt_lib_db_460+0x7:0xE3[p]>
     154:	F101      	st         flags, @(-0xF, y)
     155:	20E0      	bra        +0x20 <.LASFDE18+0x9:0x175[p]>
     156:	19E6      	blt        +0x19, x
     157:	0190      	smult      #+0x1
     158:	F02F      	st         y, @(-0x10, y)
     159:	0090      	smult      #+0x0
     15A:	E440      	addc       ah, #-0x1C
     15B:	90F0      	bne        -0x70 <UART_RATE_57K6:0xEB[p]>
     15C:	4700      	**prefx    0x47
     15D:	89F0      	bne        +0x4689 <DATA_ROM_SIZE+0x7E6:0x47E6[p]>
     15E:	7582      	cmp        ah, @(+0x75, x)
     15F:	0883      	cmp        ah, @(+0x8, y)
     160:	54E0      	bra        +0x54 <.LASFDE24:0x1B4[p]>
     161:	F0EF      	bmi        @(-0x10, y)
     162:	7F75      	nadd       al, @0x7F <L0+0x3>
     163:	75FF      	bcs        @(+0x75, y)
     164:	40C8      	and        x, #0x40
     165:	C875      	nadd       al, @0xFFC8 <___libgatt_lib_db_2743+0x147>
     166:	0100      	**prefx    0x1
     167:	0003      	st         uy, @(+0x100, y)

0x00000168 <___libgatt_lib_db_476>:
     168:	0014      	ld         al, #+0x0
     169:	9700      	**prefx    0x97
     16A:	3625      	st         al, @0x9736 <sm_store_recall>
     16B:	0014      	ld         al, #+0x0
     16C:	9700      	**prefx    0x97
     16D:	3725      	st         al, @0x9737 <sm_keys_request>
     16E:	0014      	ld         al, #+0x0
     16F:	9700      	**prefx    0x97
     170:	3825      	st         al, @0x9738 <sm_div_approve_request>
     171:	0014      	ld         al, #+0x0
     172:	3900      	**prefx    0x39
     173:	E525      	st         al, @0x38E5 <sm_pairing_auth_ind>
     174:	0014      	ld         al, #+0x0
     175:	3900      	**prefx    0x39
     176:	E425      	st         al, @0x38E4 <sm_long_term_key_ind>
     177:	00E2      	bra        0x0, x

0x00000178 <SMFeaturesReq>:
     178:	030B      	enter      #+0x3

0x00000179 <.LCFI0>:
     179:	0027      	st         al, @(0x0, y)
     17A:	0123      	st         ah, @(+0x1, y)
     17B:	ED9C      	bsr        -0x13 <___libgatt_lib_db_476:0x168[p]>

0x0000017C <.LVL1>:
     17C:	009B      	tst        @(0x0, y)
     17D:	04F0      	bne        +0x4 <.LEFDE18+0x1:0x181[p]>
     17E:	0014      	ld         al, #+0x0
     17F:	9700      	**prefx    0x97
     180:	3625      	st         al, @0x9736 <sm_store_recall>
     181:	019B      	tst        @(+0x1, y)
     182:	04F0      	bne        +0x4 <.LASFDE20+0x2:0x186[p]>
     183:	0014      	ld         al, #+0x0
     184:	9700      	**prefx    0x97
     185:	3725      	st         al, @0x9737 <sm_keys_request>
     186:	039B      	tst        @(+0x3, y)
     187:	04F0      	bne        +0x4 <.LVL2+0x3:0x18B[p]>

0x00000188 <.LVL2>:
     188:	0014      	ld         al, #+0x0
     189:	9700      	**prefx    0x97
     18A:	3825      	st         al, @0x9738 <sm_div_approve_request>
     18B:	049B      	tst        @(+0x4, y)
     18C:	04F0      	bne        +0x4 <.LVL3+0x3:0x190[p]>

0x0000018D <.LVL3>:
     18D:	0014      	ld         al, #+0x0
     18E:	3900      	**prefx    0x39
     18F:	E525      	st         al, @0x38E5 <sm_pairing_auth_ind>
     190:	059B      	tst        @(+0x5, y)
     191:	04F0      	bne        +0x4 <.LVL4+0x3:0x195[p]>

0x00000192 <.LVL4>:
     192:	0014      	ld         al, #+0x0
     193:	3900      	**prefx    0x39
     194:	E425      	st         al, @0x38E4 <sm_long_term_key_ind>
     195:	030F      	leave      #+0x3

0x00000196 <SMDistributeMasterLtk>:
     196:	E199      	tst        @0xFFE1 <register al>
     197:	06F4      	beq        +0x6 <.LVL7:0x19D[p]>
     198:	9300      	**prefx    0x93
     199:	6015      	ld         al, @0x9360 <DATA_ROMDATA_START>

0x0000019A <.LVL6>:
     19A:	0100      	**prefx    0x1
     19B:	00B4      	or         al, #+0x100
     19C:	05E0      	bra        +0x5 <.LVL8+0x2:0x1A1[p]>

0x0000019D <.LVL7>:
     19D:	9300      	**prefx    0x93
     19E:	6015      	ld         al, @0x9360 <DATA_ROMDATA_START>

0x0000019F <.LVL8>:
     19F:	FF00      	**prefx    0xFF
     1A0:	FFC4      	and        al, #0xFEFF
     1A1:	9300      	**prefx    0x93
     1A2:	6025      	st         al, @0x9360 <DATA_ROMDATA_START>
     1A3:	00E2      	bra        0x0, x

0x000001A4 <___libgatt_lib_db_4588>:
     1A4:	030B      	enter      #+0x3
     1A5:	0617      	ld         al, @(+0x6, y)
     1A6:	2CF4      	beq        +0x2C <.LVL5:0x1D2[p]>
     1A7:	9400      	**prefx    0x94
     1A8:	4615      	ld         al, @0x9446 <BSS_START>
     1A9:	2CF0      	bne        +0x2C <___libgatt_lib_db_4617:0x1D5[p]>
     1AA:	3800      	**prefx    0x38
     1AB:	2015      	ld         al, @0x3820 <DATA_BSS_APP_START+0x2>
     1AC:	0284      	cmp        al, #+0x2
     1AD:	052C      	bcz        +0x5 <.LVL3:0x1B2[p]>
     1AE:	0110      	ld         ah, #+0x1

0x000001AF <.LVL2>:
     1AF:	3800      	**prefx    0x38
     1B0:	2021      	st         ah, @0x3820 <DATA_BSS_APP_START+0x2>
     1B1:	04E0      	bra        +0x4 <.LASFDE24+0x1:0x1B5[p]>

0x000001B2 <.LVL3>:
     1B2:	0134      	add        al, #+0x1
     1B3:	3800      	**prefx    0x38
     1B4:	2025      	st         al, @0x3820 <DATA_BSS_APP_START+0x2>
     1B5:	3800      	**prefx    0x38
     1B6:	2015      	ld         al, @0x3820 <DATA_BSS_APP_START+0x2>
     1B7:	0284      	cmp        al, #+0x2
     1B8:	1D2C      	bcz        +0x1D <___libgatt_lib_db_4617:0x1D5[p]>
     1B9:	0114      	ld         al, #+0x1
     1BA:	9400      	**prefx    0x94
     1BB:	4625      	st         al, @0x9446 <BSS_START>
     1BC:	3800      	**prefx    0x38
     1BD:	1F19      	ld         x, @0x381F <DATA_BSS_APP_START+0x1>
     1BE:	3800      	**prefx    0x38
     1BF:	1F15      	ld         al, @0x381F <DATA_BSS_APP_START+0x1>
     1C0:	E100      	**prefx    0xE1
     1C1:	E138      	add        x, #-0x1F1F
     1C2:	0110      	ld         ah, #+0x1

0x000001C3 <.LVL4>:
     1C3:	0023      	st         ah, @(0x0, y)
     1C4:	8700      	**prefx    0x87
     1C5:	6934      	add        al, #-0x7897
     1C6:	0127      	st         al, @(+0x1, y)
     1C7:	2D10      	ld         ah, #+0x2D
     1C8:	C700      	**prefx    0xC7
     1C9:	C014      	ld         al, #-0x3940
     1CA:	FF2B      	st         x, @(-0x1, y)
     1CB:	FF9F      	bsr        @(-0x1, y)
     1CC:	E199      	tst        @0xFFE1 <register al>
     1CD:	08F0      	bne        +0x8 <___libgatt_lib_db_4617:0x1D5[p]>
     1CE:	0010      	ld         ah, #+0x0
     1CF:	9400      	**prefx    0x94
     1D0:	4621      	st         ah, @0x9446 <BSS_START>
     1D1:	04E0      	bra        +0x4 <___libgatt_lib_db_4617:0x1D5[p]>

0x000001D2 <.LVL5>:
     1D2:	0014      	ld         al, #+0x0
     1D3:	3800      	**prefx    0x38
     1D4:	2025      	st         al, @0x3820 <DATA_BSS_APP_START+0x2>
     1D5:	8800      	**prefx    0x88
     1D6:	5010      	ld         ah, #-0x77B0

0x000001D7 <.LVL6>:
     1D7:	0223      	st         ah, @(+0x2, y)
     1D8:	030F      	leave      #+0x3

0x000001D9 <___libgatt_lib_db_4591>:
     1D9:	010B      	enter      #+0x1

0x000001DA <.LCFI1>:
     1DA:	0F17      	ld         al, @(+0xF, y)

0x000001DB <.LVL8>:
     1DB:	FB25      	st         al, @0xFFFB <(scratchpad)>
     1DC:	101B      	ld         x, @(+0x10, y)
     1DD:	F829      	st         x, @0xFFF8 <(scratchpad)>

0x000001DE <.LVL9>:
     1DE:	1417      	ld         al, @(+0x14, y)
     1DF:	FA25      	st         al, @0xFFFA <(scratchpad)>

0x000001E0 <.LVL10>:
     1E0:	E315      	ld         al, @0xFFE3 <register uxl>
     1E1:	0100      	**prefx    0x1
     1E2:	80C4      	and        al, #0x80
     1E3:	0BF4      	beq        +0xB <.LVL13:0x1EE[p]>

0x000001E4 <.LVL11>:
     1E4:	1017      	ld         al, @(+0x10, y)
     1E5:	FF00      	**prefx    0xFF
     1E6:	7FC4      	and        al, #0xFF7F
     1E7:	1027      	st         al, @(+0x10, y)
     1E8:	FA19      	ld         x, @0xFFFA <(scratchpad)>

0x000001E9 <.LVL12>:
     1E9:	0016      	ld         al, @(0x0, x)
     1EA:	FF00      	**prefx    0xFF
     1EB:	7FC4      	and        al, #0xFF7F
     1EC:	0026      	st         al, @(0x0, x)
     1ED:	29E0      	bra        +0x29 <.LVL17:0x216[p]>

0x000001EE <.LVL13>:
     1EE:	0188      	cmp        x, #+0x1

0x000001EF <.LVL14>:
     1EF:	03F4      	beq        +0x3 <.LVL14+0x3:0x1F2[p]>
     1F0:	0B88      	cmp        x, #+0xB
     1F1:	05F0      	bne        +0x5 <.LVL14+0x7:0x1F6[p]>
     1F2:	3800      	**prefx    0x38
     1F3:	1E99      	tst        @0x381E <DATA_BSS_APP_START>
     1F4:	02F4      	beq        +0x2 <.LVL14+0x7:0x1F6[p]>
     1F5:	140F      	leave      #+0x14
     1F6:	FB19      	ld         x, @0xFFFB <(scratchpad)>
     1F7:	061A      	ld         x, @(+0x6, x)
     1F8:	F815      	ld         al, @0xFFF8 <(scratchpad)>
     1F9:	FF34      	add        al, #-0x1
     1FA:	F925      	st         al, @0xFFF9 <(scratchpad)>
     1FB:	0114      	ld         al, #+0x1
     1FC:	F9A1      	asl        @0xFFF9 <(scratchpad)>

0x000001FD <.LVL15>:
     1FD:	E3C5      	and        al, @0xFFE3 <register uxl>
     1FE:	18F4      	beq        +0x18 <.LVL17:0x216[p]>
     1FF:	E315      	ld         al, @0xFFE3 <register uxl>
     200:	F819      	ld         x, @0xFFF8 <(scratchpad)>
     201:	A100      	**prefx    0xA1
     202:	01C6      	and        al, @(-0x5EFF, x)
     203:	13F0      	bne        +0x13 <.LVL17:0x216[p]>
     204:	9400      	**prefx    0x94
     205:	4615      	ld         al, @0x9446 <BSS_START>
     206:	10F0      	bne        +0x10 <.LVL17:0x216[p]>
     207:	0188      	cmp        x, #+0x1
     208:	03F4      	beq        +0x3 <___libgatt_lib_db_1887+0x3:0x20B[p]>
     209:	0B88      	cmp        x, #+0xB
     20A:	0CF0      	bne        +0xC <.LVL17:0x216[p]>
     20B:	0118      	ld         x, #+0x1
     20C:	3800      	**prefx    0x38
     20D:	1E29      	st         x, @0x381E <DATA_BSS_APP_START>
     20E:	3900      	**prefx    0x39
     20F:	E519      	ld         x, @0x38E5 <sm_pairing_auth_ind>
     210:	06F4      	beq        +0x6 <.LVL17:0x216[p]>
     211:	FB15      	ld         al, @0xFFFB <(scratchpad)>
     212:	FA11      	ld         ah, @0xFFFA <(scratchpad)>
     213:	FF2B      	st         x, @(-0x1, y)
     214:	FF9F      	bsr        @(-0x1, y)

0x00000215 <.LVL16>:
     215:	140F      	leave      #+0x14

0x00000216 <.LVL17>:
     216:	010F      	leave      #+0x1

0x00000217 <.LFB6>:
     217:	020B      	enter      #+0x2

0x00000218 <.LCFI2>:
     218:	3800      	**prefx    0x38
     219:	1F11      	ld         ah, @0x381F <DATA_BSS_APP_START+0x1>
     21A:	8500      	**prefx    0x85
     21B:	0130      	add        ah, #-0x7AFF
     21C:	FF23      	st         ah, @(-0x1, y)
     21D:	FF9F      	bsr        @(-0x1, y)

0x0000021E <.LVL19>:
     21E:	0027      	st         al, @(0x0, y)
     21F:	14F4      	beq        +0x14 <L0+0x5:0x233[p]>
     220:	0014      	ld         al, #+0x0
     221:	001B      	ld         x, @(0x0, y)
     222:	2A26      	st         al, @(+0x2A, x)
     223:	3800      	**prefx    0x38
     224:	1F11      	ld         ah, @0x381F <DATA_BSS_APP_START+0x1>
     225:	8800      	**prefx    0x88
     226:	0630      	add        ah, #-0x77FA
     227:	E315      	ld         al, @0xFFE3 <register uxl>
     228:	FF23      	st         ah, @(-0x1, y)
     229:	FF9F      	bsr        @(-0x1, y)
     22A:	3800      	**prefx    0x38
     22B:	1F19      	ld         x, @0x381F <DATA_BSS_APP_START+0x1>
     22C:	8800      	**prefx    0x88
     22D:	1138      	add        x, #-0x77EF
     22E:	0017      	ld         al, @(0x0, y)
     22F:	0C00      	**prefx    0xC
     230:	8010      	ld         ah, #+0xB80
     231:	FF2B      	st         x, @(-0x1, y)
     232:	FF9F      	bsr        @(-0x1, y)
     233:	020F      	leave      #+0x2

0x00000234 <___libgatt_lib_db_4589>:
     234:	010B      	enter      #+0x1

0x00000235 <.LCFI3>:
     235:	9300      	**prefx    0x93
     236:	6615      	ld         al, @0x9366 <___libgatt_lib_db_18+0x1>

0x00000237 <.LVL22>:
     237:	0284      	cmp        al, #+0x2
     238:	05F4      	beq        +0x5 <.LVL22+0x6:0x23D[p]>
     239:	031B      	ld         x, @(+0x3, y)
     23A:	0014      	ld         al, #+0x0
     23B:	0526      	st         al, @(+0x5, x)
     23C:	0626      	st         al, @(+0x6, x)
     23D:	010F      	leave      #+0x1

0x0000023E <___libgatt_lib_db_4593>:
     23E:	010B      	enter      #+0x1

0x0000023F <.LCFI4>:
     23F:	0A1B      	ld         x, @(+0xA, y)
     240:	3800      	**prefx    0x38
     241:	1F11      	ld         ah, @0x381F <DATA_BSS_APP_START+0x1>

0x00000242 <.LVL24>:
     242:	9700      	**prefx    0x97
     243:	8530      	add        ah, #-0x697B
     244:	0516      	ld         al, @(+0x5, x)

0x00000245 <.LVL25>:
     245:	FF23      	st         ah, @(-0x1, y)
     246:	FF9F      	bsr        @(-0x1, y)
     247:	0284      	cmp        al, #+0x2
     248:	04F0      	bne        +0x4 <.LVL25+0x7:0x24C[p]>
     249:	0114      	ld         al, #+0x1
     24A:	3800      	**prefx    0x38
     24B:	1E25      	st         al, @0x381E <DATA_BSS_APP_START>
     24C:	010F      	leave      #+0x1

0x0000024D <___libgatt_lib_db_4587>:
     24D:	020B      	enter      #+0x2

0x0000024E <.LCFI5>:
     24E:	0014      	ld         al, #+0x0

0x0000024F <.LVL27>:
     24F:	3800      	**prefx    0x38
     250:	1E25      	st         al, @0x381E <DATA_BSS_APP_START>
     251:	0617      	ld         al, @(+0x6, y)
     252:	8C00      	**prefx    0x8C
     253:	DC84      	cmp        al, #-0x7424
     254:	1AF0      	bne        +0x1A <.LBE11:0x26E[p]>
     255:	0517      	ld         al, @(+0x5, y)

0x00000256 <.LVL28>:
     256:	0684      	cmp        al, #+0x6
     257:	17F0      	bne        +0x17 <.LBE11:0x26E[p]>
     258:	041B      	ld         x, @(+0x4, y)

0x00000259 <.LVL29>:
     259:	051A      	ld         x, @(+0x5, x)

0x0000025A <.LVL30>:
     25A:	002B      	st         x, @(0x0, y)

0x0000025B <.LBB10>:
     25B:	3800      	**prefx    0x38
     25C:	1F19      	ld         x, @0x381F <DATA_BSS_APP_START+0x1>

0x0000025D <.LBE10>:
     25D:	B700      	**prefx    0xB7
     25E:	E838      	add        x, #-0x4918
     25F:	0B00      	**prefx    0xB
     260:	D014      	ld         al, #+0xAD0

0x00000261 <.LVL31>:
     261:	0210      	ld         ah, #+0x2

0x00000262 <.LVL32>:
     262:	FF2B      	st         x, @(-0x1, y)
     263:	FF9F      	bsr        @(-0x1, y)
     264:	E119      	ld         x, @0xFFE1 <register al>

0x00000265 <.LBB11>:
     265:	0017      	ld         al, @(0x0, y)
     266:	0126      	st         al, @(+0x1, x)
     267:	3800      	**prefx    0x38
     268:	1F11      	ld         ah, @0x381F <DATA_BSS_APP_START+0x1>
     269:	B600      	**prefx    0xB6
     26A:	2030      	add        ah, #-0x49E0
     26B:	E315      	ld         al, @0xFFE3 <register uxl>
     26C:	FF23      	st         ah, @(-0x1, y)
     26D:	FF9F      	bsr        @(-0x1, y)

0x0000026E <.LBE11>:
     26E:	020F      	leave      #+0x2

0x0000026F <___libgatt_lib_db_4602>:
     26F:	0F0B      	enter      #+0xF

0x00000270 <.LCFI6>:
     270:	0B27      	st         al, @(+0xB, y)
     271:	0C23      	st         ah, @(+0xC, y)
     272:	1690      	smult      #+0x16

0x00000273 <.LVL35>:
     273:	9500      	**prefx    0x95
     274:	2E34      	add        al, #-0x6AD2
     275:	0D27      	st         al, @(+0xD, y)
     276:	E119      	ld         x, @0xFFE1 <register al>
     277:	001A      	ld         x, @(0x0, x)
     278:	092B      	st         x, @(+0x9, y)
     279:	0810      	ld         ah, #+0x8
     27A:	0023      	st         ah, @(0x0, y)
     27B:	E415      	ld         al, @0xFFE4 <register uy>
     27C:	0134      	add        al, #+0x1
     27D:	0F13      	ld         ah, @(+0xF, y)
     27E:	0100      	**prefx    0x1
     27F:	8A00      	**prefx    0x8A
     280:	369C      	bsr        +0x8A36 <MemCopyPack:0x8CB6[p]>
     281:	3800      	**prefx    0x38
     282:	1F19      	ld         x, @0x381F <DATA_BSS_APP_START+0x1>
     283:	8600      	**prefx    0x86
     284:	C838      	add        x, #-0x7A38
     285:	E415      	ld         al, @0xFFE4 <register uy>
     286:	0134      	add        al, #+0x1
     287:	0C13      	ld         ah, @(+0xC, y)
     288:	FF2B      	st         x, @(-0x1, y)
     289:	FF9F      	bsr        @(-0x1, y)
     28A:	0A27      	st         al, @(+0xA, y)
     28B:	0FC4      	and        al, #0xF
     28C:	0684      	cmp        al, #+0x6
     28D:	0BFC      	bcs        +0xB <.LVL39+0x1:0x298[p]>

0x0000028E <.LVL38>:
     28E:	3800      	**prefx    0x38
     28F:	1F11      	ld         ah, @0x381F <DATA_BSS_APP_START+0x1>
     290:	8600      	**prefx    0x86
     291:	8030      	add        ah, #-0x7A80
     292:	0A17      	ld         al, @(+0xA, y)
     293:	FF23      	st         ah, @(-0x1, y)
     294:	FF9F      	bsr        @(-0x1, y)
     295:	9300      	**prefx    0x93
     296:	6785      	cmp        al, @0x9367 <___libgatt_lib_db_18+0x2>

0x00000297 <.LVL39>:
     297:	09F8      	bcc        +0x9 <.LVL41:0x2A0[p]>
     298:	3800      	**prefx    0x38
     299:	1F11      	ld         ah, @0x381F <DATA_BSS_APP_START+0x1>
     29A:	D000      	**prefx    0xD0
     29B:	1630      	add        ah, #-0x2FEA
     29C:	0917      	ld         al, @(+0x9, y)

0x0000029D <.LVL40>:
     29D:	FF23      	st         ah, @(-0x1, y)
     29E:	FF9F      	bsr        @(-0x1, y)
     29F:	23E0      	bra        +0x23 <.LVL46:0x2C2[p]>

0x000002A0 <.LVL41>:
     2A0:	0A13      	ld         ah, @(+0xA, y)
     2A1:	0D1B      	ld         x, @(+0xD, y)
     2A2:	1522      	st         ah, @(+0x15, x)
     2A3:	109B      	tst        @(+0x10, y)
     2A4:	03F4      	beq        +0x3 <.LVL42+0x2:0x2A7[p]>

0x000002A5 <.LVL42>:
     2A5:	101B      	ld         x, @(+0x10, y)
     2A6:	2B26      	st         al, @(+0x2B, x)
     2A7:	3800      	**prefx    0x38
     2A8:	1F19      	ld         x, @0x381F <DATA_BSS_APP_START+0x1>
     2A9:	9700      	**prefx    0x97
     2AA:	389A      	tst        @(-0x68C8, x)
     2AB:	10F4      	beq        +0x10 <.LVL44:0x2BB[p]>
     2AC:	3800      	**prefx    0x38
     2AD:	1F11      	ld         ah, @0x381F <DATA_BSS_APP_START+0x1>
     2AE:	F821      	st         ah, @0xFFF8 <(scratchpad)>
     2AF:	0B17      	ld         al, @(+0xB, y)

0x000002B0 <.LVL43>:
     2B0:	1790      	smult      #+0x17
     2B1:	E119      	ld         x, @0xFFE1 <register al>
     2B2:	9700      	**prefx    0x97
     2B3:	D716      	ld         al, @(-0x6929, x)
     2B4:	F819      	ld         x, @0xFFF8 <(scratchpad)>
     2B5:	9700      	**prefx    0x97
     2B6:	381A      	ld         x, @(-0x68C8, x)
     2B7:	0A13      	ld         ah, @(+0xA, y)
     2B8:	FF2B      	st         x, @(-0x1, y)
     2B9:	FF9F      	bsr        @(-0x1, y)
     2BA:	08E0      	bra        +0x8 <.LVL46:0x2C2[p]>

0x000002BB <.LVL44>:
     2BB:	3800      	**prefx    0x38
     2BC:	1F11      	ld         ah, @0x381F <DATA_BSS_APP_START+0x1>
     2BD:	8A00      	**prefx    0x8A
     2BE:	8530      	add        ah, #-0x767B
     2BF:	0B17      	ld         al, @(+0xB, y)

0x000002C0 <.LVL45>:
     2C0:	FF23      	st         ah, @(-0x1, y)
     2C1:	FF9F      	bsr        @(-0x1, y)

0x000002C2 <.LVL46>:
     2C2:	0F0F      	leave      #+0xF

0x000002C3 <___libgatt_lib_db_4590>:
     2C3:	050B      	enter      #+0x5

0x000002C4 <.LCFI7>:
     2C4:	0327      	st         al, @(+0x3, y)
     2C5:	3800      	**prefx    0x38
     2C6:	1F11      	ld         ah, @0x381F <DATA_BSS_APP_START+0x1>
     2C7:	8500      	**prefx    0x85
     2C8:	4430      	add        ah, #-0x7ABC
     2C9:	E119      	ld         x, @0xFFE1 <register al>
     2CA:	0016      	ld         al, @(0x0, x)

0x000002CB <.LVL48>:
     2CB:	FF23      	st         ah, @(-0x1, y)
     2CC:	FF9F      	bsr        @(-0x1, y)
     2CD:	0227      	st         al, @(+0x2, y)
     2CE:	9300      	**prefx    0x93
     2CF:	6799      	tst        @0x9367 <___libgatt_lib_db_18+0x2>
     2D0:	24F4      	beq        +0x24 <.LVL51+0x1:0x2F4[p]>
     2D1:	029B      	tst        @(+0x2, y)
     2D2:	18F4      	beq        +0x18 <___libgatt_lib_db_4253+0x1F:0x2EA[p]>
     2D3:	021B      	ld         x, @(+0x2, y)
     2D4:	0616      	ld         al, @(+0x6, x)
     2D5:	1C00      	**prefx    0x1C
     2D6:	0FC4      	and        al, #0x1C0F
     2D7:	1000      	**prefx    0x10
     2D8:	0084      	cmp        al, #+0x1000
     2D9:	11F0      	bne        +0x11 <___libgatt_lib_db_4253+0x1F:0x2EA[p]>
     2DA:	3800      	**prefx    0x38
     2DB:	1F15      	ld         al, @0x381F <DATA_BSS_APP_START+0x1>
     2DC:	E119      	ld         x, @0xFFE1 <register al>
     2DD:	D000      	**prefx    0xD0
     2DE:	4938      	add        x, #-0x2FB7
     2DF:	F829      	st         x, @0xFFF8 <(scratchpad)>
     2E0:	0217      	ld         al, @(+0x2, y)
     2E1:	0934      	add        al, #+0x9
     2E2:	0227      	st         al, @(+0x2, y)
     2E3:	031B      	ld         x, @(+0x3, y)
     2E4:	0016      	ld         al, @(0x0, x)
     2E5:	0213      	ld         ah, @(+0x2, y)
     2E6:	F819      	ld         x, @0xFFF8 <(scratchpad)>
     2E7:	FF2B      	st         x, @(-0x1, y)
     2E8:	FF9F      	bsr        @(-0x1, y)
     2E9:	28E0      	bra        +0x28 <.LVL56:0x311[p]>
     2EA:	3800      	**prefx    0x38
     2EB:	1F11      	ld         ah, @0x381F <DATA_BSS_APP_START+0x1>
     2EC:	9200      	**prefx    0x92
     2ED:	3730      	add        ah, #-0x6DC9
     2EE:	031B      	ld         x, @(+0x3, y)
     2EF:	0016      	ld         al, @(0x0, x)
     2F0:	FF23      	st         ah, @(-0x1, y)
     2F1:	FF9F      	bsr        @(-0x1, y)
     2F2:	FF84      	cmp        al, #-0x1

0x000002F3 <.LVL51>:
     2F3:	0AF0      	bne        +0xA <.LVL53:0x2FD[p]>
     2F4:	3800      	**prefx    0x38
     2F5:	1F11      	ld         ah, @0x381F <DATA_BSS_APP_START+0x1>
     2F6:	D000      	**prefx    0xD0
     2F7:	1630      	add        ah, #-0x2FEA
     2F8:	031B      	ld         x, @(+0x3, y)
     2F9:	0016      	ld         al, @(0x0, x)

0x000002FA <.LVL52>:
     2FA:	FF23      	st         ah, @(-0x1, y)
     2FB:	FF9F      	bsr        @(-0x1, y)
     2FC:	15E0      	bra        +0x15 <.LVL56:0x311[p]>

0x000002FD <.LVL53>:
     2FD:	3900      	**prefx    0x39
     2FE:	E419      	ld         x, @0x38E4 <sm_long_term_key_ind>
     2FF:	F829      	st         x, @0xFFF8 <(scratchpad)>
     300:	031B      	ld         x, @(+0x3, y)
     301:	0912      	ld         ah, @(+0x9, x)
     302:	F899      	tst        @0xFFF8 <(scratchpad)>
     303:	07F4      	beq        +0x7 <.LVL55:0x30A[p]>
     304:	0138      	add        x, #+0x1
     305:	002B      	st         x, @(0x0, y)
     306:	F819      	ld         x, @0xFFF8 <(scratchpad)>
     307:	FF2B      	st         x, @(-0x1, y)
     308:	FF9F      	bsr        @(-0x1, y)

0x00000309 <.LVL54>:
     309:	08E0      	bra        +0x8 <.LVL56:0x311[p]>

0x0000030A <.LVL55>:
     30A:	031B      	ld         x, @(+0x3, y)
     30B:	0138      	add        x, #+0x1
     30C:	002B      	st         x, @(0x0, y)
     30D:	021B      	ld         x, @(+0x2, y)
     30E:	012B      	st         x, @(+0x1, y)
     30F:	FF00      	**prefx    0xFF
     310:	5F9C      	bsr        -0xA1 <___libgatt_lib_db_4602:0x26F[p]>

0x00000311 <.LVL56>:
     311:	050F      	leave      #+0x5

0x00000312 <___libgatt_lib_db_4592>:
     312:	080B      	enter      #+0x8

0x00000313 <.LCFI8>:
     313:	0A17      	ld         al, @(+0xA, y)

0x00000314 <.LVL58>:
     314:	0627      	st         al, @(+0x6, y)
     315:	0B1B      	ld         x, @(+0xB, y)
     316:	052B      	st         x, @(+0x5, y)
     317:	0016      	ld         al, @(0x0, x)
     318:	0984      	cmp        al, #+0x9
     319:	2AF0      	bne        +0x2A <.LVL64:0x343[p]>
     31A:	061B      	ld         x, @(+0x6, y)
     31B:	0516      	ld         al, @(+0x5, x)
     31C:	0010      	ld         ah, #+0x0

0x0000031D <.LVL61>:
     31D:	0009      	**unsigned
     31E:	0394      	udiv       #0x3
     31F:	1690      	smult      #+0x16
     320:	9500      	**prefx    0x95
     321:	2F34      	add        al, #-0x6AD1
     322:	F825      	st         al, @0xFFF8 <(scratchpad)>

0x00000323 <.LVL62>:
     323:	E119      	ld         x, @0xFFE1 <register al>
     324:	0016      	ld         al, @(0x0, x)
     325:	0184      	cmp        al, #+0x1
     326:	1DF0      	bne        +0x1D <.LVL64:0x343[p]>
     327:	0416      	ld         al, @(+0x4, x)
     328:	C000      	**prefx    0xC0
     329:	00C4      	and        al, #0xC000
     32A:	C000      	**prefx    0xC0
     32B:	0084      	cmp        al, #-0x4000
     32C:	17F0      	bne        +0x17 <.LVL64:0x343[p]>
     32D:	0114      	ld         al, #+0x1
     32E:	051B      	ld         x, @(+0x5, y)
     32F:	0126      	st         al, @(+0x1, x)
     330:	3800      	**prefx    0x38
     331:	1F19      	ld         x, @0x381F <DATA_BSS_APP_START+0x1>
     332:	B900      	**prefx    0xB9
     333:	1738      	add        x, #-0x46E9
     334:	F815      	ld         al, @0xFFF8 <(scratchpad)>
     335:	0134      	add        al, #+0x1
     336:	E411      	ld         ah, @0xFFE4 <register uy>
     337:	0230      	add        ah, #+0x2
     338:	FF2B      	st         x, @(-0x1, y)
     339:	FF9F      	bsr        @(-0x1, y)

0x0000033A <.LVL63>:
     33A:	0517      	ld         al, @(+0x5, y)
     33B:	0234      	add        al, #+0x2
     33C:	0618      	ld         x, #+0x6
     33D:	002B      	st         x, @(0x0, y)
     33E:	E411      	ld         ah, @0xFFE4 <register uy>
     33F:	0230      	add        ah, #+0x2
     340:	0100      	**prefx    0x1
     341:	8A00      	**prefx    0x8A
     342:	9E9C      	bsr        +0x899E <MemCopyUnPack:0x8CE0[p]>

0x00000343 <.LVL64>:
     343:	3800      	**prefx    0x38
     344:	1F11      	ld         ah, @0x381F <DATA_BSS_APP_START+0x1>

0x00000345 <.LVL65>:
     345:	E000      	**prefx    0xE0
     346:	1930      	add        ah, #-0x1FE7
     347:	061B      	ld         x, @(+0x6, y)
     348:	2A16      	ld         al, @(+0x2A, x)
     349:	FF23      	st         ah, @(-0x1, y)
     34A:	FF9F      	bsr        @(-0x1, y)

0x0000034B <.LVL66>:
     34B:	3800      	**prefx    0x38
     34C:	1F19      	ld         x, @0x381F <DATA_BSS_APP_START+0x1>
     34D:	E100      	**prefx    0xE1
     34E:	E138      	add        x, #-0x1F1F
     34F:	0114      	ld         al, #+0x1
     350:	0027      	st         al, @(0x0, y)
     351:	0200      	**prefx    0x2
     352:	1714      	ld         al, #+0x217
     353:	0127      	st         al, @(+0x1, y)
     354:	0200      	**prefx    0x2
     355:	C910      	ld         ah, #+0x1C9
     356:	C400      	**prefx    0xC4
     357:	8014      	ld         al, #-0x3C80
     358:	FF2B      	st         x, @(-0x1, y)
     359:	FF9F      	bsr        @(-0x1, y)
     35A:	061B      	ld         x, @(+0x6, y)
     35B:	2A26      	st         al, @(+0x2A, x)
     35C:	3800      	**prefx    0x38
     35D:	1F15      	ld         al, @0x381F <DATA_BSS_APP_START+0x1>
     35E:	F825      	st         al, @0xFFF8 <(scratchpad)>
     35F:	051B      	ld         x, @(+0x5, y)
     360:	0016      	ld         al, @(0x0, x)
     361:	E119      	ld         x, @0xFFE1 <register al>
     362:	A100      	**prefx    0xA1
     363:	D412      	ld         ah, @(-0x5F2C, x)
     364:	F815      	ld         al, @0xFFF8 <(scratchpad)>
     365:	9600      	**prefx    0x96
     366:	F234      	add        al, #-0x6A0E
     367:	F825      	st         al, @0xFFF8 <(scratchpad)>
     368:	061B      	ld         x, @(+0x6, y)
     369:	0516      	ld         al, @(+0x5, x)
     36A:	051B      	ld         x, @(+0x5, y)
     36B:	002B      	st         x, @(0x0, y)
     36C:	F819      	ld         x, @0xFFF8 <(scratchpad)>
     36D:	FF2B      	st         x, @(-0x1, y)
     36E:	FF9F      	bsr        @(-0x1, y)
     36F:	8400      	**prefx    0x84
     370:	CF14      	ld         al, #-0x7C31
     371:	0727      	st         al, @(+0x7, y)
     372:	080F      	leave      #+0x8

0x00000373 <___libgatt_lib_db_4604>:
     373:	010B      	enter      #+0x1
     374:	E199      	tst        @0xFFE1 <register al>
     375:	03F4      	beq        +0x3 <___libgatt_lib_db_4604+0x5:0x378[p]>
     376:	0484      	cmp        al, #+0x4
     377:	04F0      	bne        +0x4 <___libgatt_lib_db_4604+0x8:0x37B[p]>
     378:	0018      	ld         x, #+0x0
     379:	3800      	**prefx    0x38
     37A:	1E29      	st         x, @0x381E <DATA_BSS_APP_START>
     37B:	3800      	**prefx    0x38
     37C:	2119      	ld         x, @0x3821 <DATA_BSS_APP_START+0x3>
     37D:	8500      	**prefx    0x85
     37E:	9C38      	add        x, #-0x7B64
     37F:	FF2B      	st         x, @(-0x1, y)
     380:	FF9F      	bsr        @(-0x1, y)

0x00000381 <.LVL1>:
     381:	010F      	leave      #+0x1

0x00000382 <AppDebugInit>:
 *  RETURNS
 *      Nothing.
 *
 *---------------------------------------------------------------------------*/
void AppDebugInit(void)
{
     382:	020B      	enter      #+0x2
    /* Initialise debug output */
    DebugInit(0, NULL, NULL);
     383:	0014      	ld         al, #+0x0
     384:	0027      	st         al, @(0x0, y)
     385:	0014      	ld         al, #+0x0
     386:	0010      	ld         ah, #+0x0
     387:	0400      	**prefx    0x4
     388:	EC9C      	bsr        +0x3EC <DebugInit:0x774[p]>
}
     389:	020F      	leave      #+0x2

0x0000038A <AppPowerOnReset>:
static uint16 setRadioToListenCalls;
static uint16 appProcessLmEventCalls;

void AppPowerOnReset(void)
{
}
     38A:	00E2      	bra        0x0, x

0x0000038B <AppProcessSystemEvent>:

void AppProcessSystemEvent(sys_event_id id, void *data)
{
     38B:	030B      	enter      #+0x3
     38C:	0027      	st         al, @(0x0, y)
     38D:	0123      	st         ah, @(+0x1, y)
}
     38E:	030F      	leave      #+0x3

0x0000038F <uartRxDataCallback>:

static uint16 uartRxDataCallback(void *p_rx_buffer, uint16 length, uint16 *p_additional_req_data_length)
{   /* Inform the UART that we'd like another byte when it becomes available */
     38F:	030B      	enter      #+0x3
     390:	0027      	st         al, @(0x0, y)
     391:	0123      	st         ah, @(+0x1, y)
    *p_additional_req_data_length = 1;    
     392:	031B      	ld         x, @(+0x3, y)
     393:	0114      	ld         al, #+0x1
     394:	0026      	st         al, @(0x0, x)
    /* Return the number of bytes that have been processed */
    return length;
     395:	0117      	ld         al, @(+0x1, y)
}
     396:	030F      	leave      #+0x3

0x00000397 <CopyArrayCheckIfDuplicate>:

bool CopyArrayCheckIfDuplicate(uint8 *source, uint8 *dest, uint8 length) {
     397:	050B      	enter      #+0x5
     398:	0227      	st         al, @(+0x2, y)
     399:	0323      	st         ah, @(+0x3, y)
    uint8 l = 0;
     39A:	0014      	ld         al, #+0x0
     39B:	0127      	st         al, @(+0x1, y)
    bool isDupe = TRUE;
     39C:	0114      	ld         al, #+0x1
     39D:	0027      	st         al, @(0x0, y)
    
    for (l = 0; l < length; l++)
     39E:	0014      	ld         al, #+0x0
     39F:	0127      	st         al, @(+0x1, y)
     3A0:	1AE0      	bra        +0x1A <UART_RATE_230K4+0xB:0x3BA[p]>
    {
        if(source[l] != dest[l])
     3A1:	0217      	ld         al, @(+0x2, y)
     3A2:	E119      	ld         x, @0xFFE1 <register al>
     3A3:	013B      	add        x, @(+0x1, y)
     3A4:	0012      	ld         ah, @(0x0, x)
     3A5:	0317      	ld         al, @(+0x3, y)
     3A6:	E119      	ld         x, @0xFFE1 <register al>
     3A7:	013B      	add        x, @(+0x1, y)
     3A8:	0016      	ld         al, @(0x0, x)
     3A9:	E181      	cmp        ah, @0xFFE1 <register al>
     3AA:	0CF4      	beq        +0xC <UART_RATE_230K4+0x7:0x3B6[p]>
        {
            isDupe = FALSE;
     3AB:	0014      	ld         al, #+0x0
     3AC:	0027      	st         al, @(0x0, y)
            dest[l] = source[l];
     3AD:	0317      	ld         al, @(+0x3, y)
     3AE:	E111      	ld         ah, @0xFFE1 <register al>
     3AF:	0133      	add        ah, @(+0x1, y)
     3B0:	0217      	ld         al, @(+0x2, y)
     3B1:	E119      	ld         x, @0xFFE1 <register al>
     3B2:	013B      	add        x, @(+0x1, y)
     3B3:	0016      	ld         al, @(0x0, x)
     3B4:	E019      	ld         x, @0xFFE0 <register ah>
     3B5:	0026      	st         al, @(0x0, x)

bool CopyArrayCheckIfDuplicate(uint8 *source, uint8 *dest, uint8 length) {
    uint8 l = 0;
    bool isDupe = TRUE;
    
    for (l = 0; l < length; l++)
     3B6:	0117      	ld         al, @(+0x1, y)
     3B7:	E119      	ld         x, @0xFFE1 <register al>
     3B8:	0138      	add        x, #+0x1
     3B9:	012B      	st         x, @(+0x1, y)
     3BA:	0117      	ld         al, @(+0x1, y)
     3BB:	0587      	cmp        al, @(+0x5, y)
     3BC:	E5FC      	bcs        -0x1B <CopyArrayCheckIfDuplicate+0xA:0x3A1[p]>
        {
            isDupe = FALSE;
            dest[l] = source[l];
        }
    }
    return isDupe; 
     3BD:	0017      	ld         al, @(0x0, y)
}
     3BE:	050F      	leave      #+0x5

0x000003BF <InitHeatMap>:

static void InitHeatMap(void)
{
     3BF:	020B      	enter      #+0x2
    /* clear the existing advertisement data */
    LsStoreAdvScanData(0, NULL, ad_src_advertise);
     3C0:	0014      	ld         al, #+0x0
     3C1:	0027      	st         al, @(0x0, y)
     3C2:	0014      	ld         al, #+0x0
     3C3:	0010      	ld         ah, #+0x0
     3C4:	0300      	**prefx    0x3
     3C5:	2A9C      	bsr        +0x32A <LsStoreAdvScanData:0x6EF[p]>

    /* store the manufacturing data */
    advData[0] = AD_TYPE_MANUF;  /* 0xFF meaning the data payload is manufacturer specific */
     3C6:	0100      	**prefx    0x1
     3C7:	FF14      	ld         al, #+0xFF
     3C8:	3900      	**prefx    0x39
     3C9:	DB25      	st         al, @0x38DB <advData>
    advData[1] = 0x00; 
     3CA:	0014      	ld         al, #+0x0
     3CB:	3900      	**prefx    0x39
     3CC:	DC25      	st         al, @0x38DC <advData+0x1>
    advData[2] = 0x00;     
     3CD:	0014      	ld         al, #+0x0
     3CE:	3900      	**prefx    0x39
     3CF:	DD25      	st         al, @0x38DD <advData+0x2>
    advData[3] = 0x00;  /* make all these zero inits meaning not recently seen */
     3D0:	0014      	ld         al, #+0x0
     3D1:	3900      	**prefx    0x39
     3D2:	DE25      	st         al, @0x38DE <advData+0x3>
    advData[4] = 0x00;  
     3D3:	0014      	ld         al, #+0x0
     3D4:	3900      	**prefx    0x39
     3D5:	DF25      	st         al, @0x38DF <advData+0x4>
    advData[5] = 0x00;  
     3D6:	0014      	ld         al, #+0x0
     3D7:	3900      	**prefx    0x39
     3D8:	E025      	st         al, @0x38E0 <advData+0x5>
    advData[6] = 0x00;  
     3D9:	0014      	ld         al, #+0x0
     3DA:	3900      	**prefx    0x39
     3DB:	E125      	st         al, @0x38E1 <advData+0x6>
    advData[7] = 0xA5;  /* no character 7 now, validation byte  */
     3DC:	0100      	**prefx    0x1
     3DD:	A514      	ld         al, #+0xA5
     3DE:	3900      	**prefx    0x39
     3DF:	E225      	st         al, @0x38E2 <advData+0x7>
    advData[8] = 0x20;  /* rolling packet tag number */
     3E0:	2014      	ld         al, #+0x20
     3E1:	3900      	**prefx    0x39
     3E2:	E325      	st         al, @0x38E3 <advData+0x8>
    
    advData[CHARACTER_NUM + 1] = MY_SPOT_MARK_FF;  /* fill this characters RSSI to FF to demark which character transmited */
     3E3:	0100      	**prefx    0x1
     3E4:	FF14      	ld         al, #+0xFF
     3E5:	3900      	**prefx    0x39
     3E6:	E125      	st         al, @0x38E1 <advData+0x6>

    priorAdvData[0] = AD_TYPE_MANUF;  /* initialize to not be equal to force initial processing */
     3E7:	0100      	**prefx    0x1
     3E8:	FF14      	ld         al, #+0xFF
     3E9:	3900      	**prefx    0x39
     3EA:	D225      	st         al, @0x38D2 <priorAdvData>
    priorAdvData[1] = 0x10; 
     3EB:	1014      	ld         al, #+0x10
     3EC:	3900      	**prefx    0x39
     3ED:	D325      	st         al, @0x38D3 <priorAdvData+0x1>
    priorAdvData[2] = 0x10;     
     3EE:	1014      	ld         al, #+0x10
     3EF:	3900      	**prefx    0x39
     3F0:	D425      	st         al, @0x38D4 <priorAdvData+0x2>
    priorAdvData[3] = 0x10;  
     3F1:	1014      	ld         al, #+0x10
     3F2:	3900      	**prefx    0x39
     3F3:	D525      	st         al, @0x38D5 <priorAdvData+0x3>
    priorAdvData[4] = 0x10;  
     3F4:	1014      	ld         al, #+0x10
     3F5:	3900      	**prefx    0x39
     3F6:	D625      	st         al, @0x38D6 <priorAdvData+0x4>
    priorAdvData[5] = 0x10;  
     3F7:	1014      	ld         al, #+0x10
     3F8:	3900      	**prefx    0x39
     3F9:	D725      	st         al, @0x38D7 <priorAdvData+0x5>
    priorAdvData[6] = 0x10;  
     3FA:	1014      	ld         al, #+0x10
     3FB:	3900      	**prefx    0x39
     3FC:	D825      	st         al, @0x38D8 <priorAdvData+0x6>
    priorAdvData[7] = 0xA5;  
     3FD:	0100      	**prefx    0x1
     3FE:	A514      	ld         al, #+0xA5
     3FF:	3900      	**prefx    0x39
     400:	D925      	st         al, @0x38D9 <priorAdvData+0x7>
    priorAdvData[8] = 0x1F;  /* rolling packet tag number */
     401:	1F14      	ld         al, #+0x1F
     402:	3900      	**prefx    0x39
     403:	DA25      	st         al, @0x38DA <priorAdvData+0x8>
    
    priorAdvData[CHARACTER_NUM + 1] = MY_SPOT_MARK_FF;  /* fill this characters RSSI to FF to demark which character transmited */
     404:	0100      	**prefx    0x1
     405:	FF14      	ld         al, #+0xFF
     406:	3900      	**prefx    0x39
     407:	D825      	st         al, @0x38D8 <priorAdvData+0x6>
    
    LsStoreAdvScanData(PACKET_SIZE, advData, ad_src_advertise);
     408:	0014      	ld         al, #+0x0
     409:	0027      	st         al, @(0x0, y)
     40A:	0914      	ld         al, #+0x9
     40B:	3900      	**prefx    0x39
     40C:	DB10      	ld         ah, #+0x38DB
     40D:	0300      	**prefx    0x3
     40E:	E19C      	bsr        +0x2E1 <LsStoreAdvScanData:0x6EF[p]>
}
     40F:	020F      	leave      #+0x2

0x00000410 <SendSerialDebugVars>:

void SendSerialDebugVars() {
     410:	010B      	enter      #+0x1
    DebugWriteUint16(processedPacketCalls);
     411:	3800      	**prefx    0x38
     412:	3915      	ld         al, @0x3839 <processedPacketCalls>
     413:	0300      	**prefx    0x3
     414:	549C      	bsr        +0x354 <DebugWriteUint16:0x768[p]>
    DebugWriteUint16(processedPacketSuccess);
     415:	3800      	**prefx    0x38
     416:	3A15      	ld         al, @0x383A <processedPacketSuccess>
     417:	0300      	**prefx    0x3
     418:	509C      	bsr        +0x350 <DebugWriteUint16:0x768[p]>
    DebugWriteUint16(handleTimerCalls);
     419:	3800      	**prefx    0x38
     41A:	3B15      	ld         al, @0x383B <handleTimerCalls>
     41B:	0300      	**prefx    0x3
     41C:	4C9C      	bsr        +0x34C <DebugWriteUint16:0x768[p]>
    DebugWriteUint16(setRadioToAdvertiseCalls);
     41D:	3800      	**prefx    0x38
     41E:	3C15      	ld         al, @0x383C <setRadioToAdvertiseCalls>
     41F:	0300      	**prefx    0x3
     420:	489C      	bsr        +0x348 <DebugWriteUint16:0x768[p]>
    DebugWriteUint16(setRadioToListenCalls);
     421:	3800      	**prefx    0x38
     422:	3D15      	ld         al, @0x383D <setRadioToListenCalls>
     423:	0300      	**prefx    0x3
     424:	449C      	bsr        +0x344 <DebugWriteUint16:0x768[p]>
    DebugWriteUint16(appProcessLmEventCalls);              
     425:	3800      	**prefx    0x38
     426:	3E15      	ld         al, @0x383E <appProcessLmEventCalls>
     427:	0300      	**prefx    0x3
     428:	409C      	bsr        +0x340 <DebugWriteUint16:0x768[p]>
    AppDebugWriteString("\r\n");
     429:	3800      	**prefx    0x38
     42A:	9D14      	ld         al, #+0x379D
     42B:	0300      	**prefx    0x3
     42C:	029C      	bsr        +0x302 <DebugWriteString:0x72E[p]>
}
     42D:	010F      	leave      #+0x1

0x0000042E <HandleTimer>:

static void HandleTimer(timer_id tid)
{
     42E:	050B      	enter      #+0x5
     42F:	0227      	st         al, @(+0x2, y)
    static uint8 state;
    static uint8 ledBlinkCount;
    /* step through listen, transmit, and low power states */
    /* TODO why does it advertise for more than 7ms? */
    handleTimerCalls++;
     430:	3800      	**prefx    0x38
     431:	3B15      	ld         al, @0x383B <handleTimerCalls>
     432:	0134      	add        al, #+0x1
     433:	3800      	**prefx    0x38
     434:	3B25      	st         al, @0x383B <handleTimerCalls>
    if (tid == broadcast_tid) /* warning if variable unused only one tid */
     435:	3900      	**prefx    0x39
     436:	D111      	ld         ah, @0x38D1 <broadcast_tid>
     437:	0217      	ld         al, @(+0x2, y)
     438:	E085      	cmp        al, @0xFFE0 <register ah>
     439:	0100      	**prefx    0x1
     43A:	BBF0      	bne        +0xBB <.JTBASE27+0xAE:0x4F5[p]>
    {
        switch (state) {
     43B:	3800      	**prefx    0x38
     43C:	2315      	ld         al, @0x3823 <state.2563.>
     43D:	0327      	st         al, @(+0x3, y)
     43E:	0317      	ld         al, @(+0x3, y)
     43F:	0984      	cmp        al, #+0x9
     440:	0100      	**prefx    0x1
     441:	94F8      	bcc        +0x94 <.JTBASE27+0x8E:0x4D5[p]>
     442:	031B      	ld         x, @(+0x3, y)
     443:	3800      	**prefx    0x38
     444:	CC38      	add        x, #+0x37CC
     445:	001A      	ld         x, @(0x0, x)
     446:	FE09      	brxl       

0x00000447 <.JTBASE27>:
           case 1 :
              broadcast_tid = TimerCreate(43*MILLISECOND, TRUE, HandleTimer); 
     447:	0400      	**prefx    0x4
     448:	2E14      	ld         al, #+0x42E
     449:	0110      	ld         ah, #+0x1
     44A:	0023      	st         ah, @(0x0, y)
     44B:	0127      	st         al, @(+0x1, y)
     44C:	0010      	ld         ah, #+0x0
     44D:	A800      	**prefx    0xA8
     44E:	F814      	ld         al, #-0x5808
     44F:	0100      	**prefx    0x1
     450:	DD00      	**prefx    0xDD
     451:	AA9C      	bsr        +0xDCAA <TimerCreate:0xE0FB[p]>
     452:	3900      	**prefx    0x39
     453:	D125      	st         al, @0x38D1 <broadcast_tid>
              SetRadioToIdle();
     454:	0100      	**prefx    0x1
     455:	A59C      	bsr        +0xA5 <SetRadioToIdle:0x4FA[p]>
     456:	0100      	**prefx    0x1
     457:	93E0      	bra        +0x93 <.JTBASE27+0xA3:0x4EA[p]>
              break;
           case 2 :
              broadcast_tid = TimerCreate(7*MILLISECOND, TRUE, HandleTimer); 
     458:	0400      	**prefx    0x4
     459:	2E14      	ld         al, #+0x42E
     45A:	0110      	ld         ah, #+0x1
     45B:	0023      	st         ah, @(0x0, y)
     45C:	0127      	st         al, @(+0x1, y)
     45D:	0010      	ld         ah, #+0x0
     45E:	1B00      	**prefx    0x1B
     45F:	5814      	ld         al, #+0x1B58
     460:	0100      	**prefx    0x1
     461:	DD00      	**prefx    0xDD
     462:	999C      	bsr        +0xDC99 <TimerCreate:0xE0FB[p]>
     463:	3900      	**prefx    0x39
     464:	D125      	st         al, @0x38D1 <broadcast_tid>
              SetRadioToAdvertise();
     465:	0100      	**prefx    0x1
     466:	C29C      	bsr        +0xC2 <SetRadioToAdvertise:0x528[p]>
     467:	0100      	**prefx    0x1
     468:	82E0      	bra        +0x82 <.JTBASE27+0xA3:0x4EA[p]>
              break;
           case 3 :
              broadcast_tid = TimerCreate(43*MILLISECOND, TRUE, HandleTimer); 
     469:	0400      	**prefx    0x4
     46A:	2E14      	ld         al, #+0x42E
     46B:	0110      	ld         ah, #+0x1
     46C:	0023      	st         ah, @(0x0, y)
     46D:	0127      	st         al, @(+0x1, y)
     46E:	0010      	ld         ah, #+0x0
     46F:	A800      	**prefx    0xA8
     470:	F814      	ld         al, #-0x5808
     471:	0100      	**prefx    0x1
     472:	DD00      	**prefx    0xDD
     473:	889C      	bsr        +0xDC88 <TimerCreate:0xE0FB[p]>
     474:	3900      	**prefx    0x39
     475:	D125      	st         al, @0x38D1 <broadcast_tid>
              SetRadioToIdle();
     476:	0100      	**prefx    0x1
     477:	839C      	bsr        +0x83 <SetRadioToIdle:0x4FA[p]>
     478:	72E0      	bra        +0x72 <.JTBASE27+0xA3:0x4EA[p]>
              break;
           case 4 :
              broadcast_tid = TimerCreate(7*MILLISECOND, TRUE, HandleTimer); 
     479:	0400      	**prefx    0x4
     47A:	2E14      	ld         al, #+0x42E
     47B:	0110      	ld         ah, #+0x1
     47C:	0023      	st         ah, @(0x0, y)
     47D:	0127      	st         al, @(+0x1, y)
     47E:	0010      	ld         ah, #+0x0
     47F:	1B00      	**prefx    0x1B
     480:	5814      	ld         al, #+0x1B58
     481:	0100      	**prefx    0x1
     482:	DC00      	**prefx    0xDC
     483:	789C      	bsr        +0xDC78 <TimerCreate:0xE0FB[p]>
     484:	3900      	**prefx    0x39
     485:	D125      	st         al, @0x38D1 <broadcast_tid>
              SetRadioToAdvertise();
     486:	0100      	**prefx    0x1
     487:	A19C      	bsr        +0xA1 <SetRadioToAdvertise:0x528[p]>
     488:	62E0      	bra        +0x62 <.JTBASE27+0xA3:0x4EA[p]>
              break;
           case 5 :
              broadcast_tid = TimerCreate(43*MILLISECOND, TRUE, HandleTimer); 
     489:	0400      	**prefx    0x4
     48A:	2E14      	ld         al, #+0x42E
     48B:	0110      	ld         ah, #+0x1
     48C:	0023      	st         ah, @(0x0, y)
     48D:	0127      	st         al, @(+0x1, y)
     48E:	0010      	ld         ah, #+0x0
     48F:	A800      	**prefx    0xA8
     490:	F814      	ld         al, #-0x5808
     491:	0100      	**prefx    0x1
     492:	DC00      	**prefx    0xDC
     493:	689C      	bsr        +0xDC68 <TimerCreate:0xE0FB[p]>
     494:	3900      	**prefx    0x39
     495:	D125      	st         al, @0x38D1 <broadcast_tid>
              SetRadioToIdle();
     496:	649C      	bsr        +0x64 <SetRadioToIdle:0x4FA[p]>
     497:	53E0      	bra        +0x53 <.JTBASE27+0xA3:0x4EA[p]>
              break;
           case 6 :
              broadcast_tid = TimerCreate(7*MILLISECOND, TRUE, HandleTimer); 
     498:	0400      	**prefx    0x4
     499:	2E14      	ld         al, #+0x42E
     49A:	0110      	ld         ah, #+0x1
     49B:	0023      	st         ah, @(0x0, y)
     49C:	0127      	st         al, @(+0x1, y)
     49D:	0010      	ld         ah, #+0x0
     49E:	1B00      	**prefx    0x1B
     49F:	5814      	ld         al, #+0x1B58
     4A0:	0100      	**prefx    0x1
     4A1:	DC00      	**prefx    0xDC
     4A2:	599C      	bsr        +0xDC59 <TimerCreate:0xE0FB[p]>
     4A3:	3900      	**prefx    0x39
     4A4:	D125      	st         al, @0x38D1 <broadcast_tid>
              SetRadioToAdvertise();
     4A5:	0100      	**prefx    0x1
     4A6:	829C      	bsr        +0x82 <SetRadioToAdvertise:0x528[p]>
     4A7:	43E0      	bra        +0x43 <.JTBASE27+0xA3:0x4EA[p]>
              break;
           case 7 :
              broadcast_tid = TimerCreate(50*MILLISECOND, TRUE, HandleTimer); 
     4A8:	0400      	**prefx    0x4
     4A9:	2E14      	ld         al, #+0x42E
     4AA:	0110      	ld         ah, #+0x1
     4AB:	0023      	st         ah, @(0x0, y)
     4AC:	0127      	st         al, @(+0x1, y)
     4AD:	0010      	ld         ah, #+0x0
     4AE:	C300      	**prefx    0xC3
     4AF:	5014      	ld         al, #-0x3CB0
     4B0:	0100      	**prefx    0x1
     4B1:	DC00      	**prefx    0xDC
     4B2:	499C      	bsr        +0xDC49 <TimerCreate:0xE0FB[p]>
     4B3:	3900      	**prefx    0x39
     4B4:	D125      	st         al, @0x38D1 <broadcast_tid>
              SetRadioToListen();
     4B5:	549C      	bsr        +0x54 <SetRadioToListen:0x509[p]>
     4B6:	34E0      	bra        +0x34 <.JTBASE27+0xA3:0x4EA[p]>
              break;
           case 8 :
              broadcast_tid = TimerCreate(7*MILLISECOND, TRUE, HandleTimer); 
     4B7:	0400      	**prefx    0x4
     4B8:	2E10      	ld         ah, #+0x42E
     4B9:	0114      	ld         al, #+0x1
     4BA:	0027      	st         al, @(0x0, y)
     4BB:	0123      	st         ah, @(+0x1, y)
     4BC:	0010      	ld         ah, #+0x0
     4BD:	1B00      	**prefx    0x1B
     4BE:	5814      	ld         al, #+0x1B58
     4BF:	0100      	**prefx    0x1
     4C0:	DC00      	**prefx    0xDC
     4C1:	3A9C      	bsr        +0xDC3A <TimerCreate:0xE0FB[p]>
     4C2:	3900      	**prefx    0x39
     4C3:	D125      	st         al, @0x38D1 <broadcast_tid>
              if (ledBlinkCount > 130)  {
     4C4:	3800      	**prefx    0x38
     4C5:	2215      	ld         al, @0x3822 <ledBlinkCount.2564.>
     4C6:	0100      	**prefx    0x1
     4C7:	8284      	cmp        al, #+0x82
     4C8:	0B2C      	bcz        +0xB <.JTBASE27+0x8C:0x4D3[p]>
                 PioSet(LED_PIO, TRUE); 
     4C9:	0414      	ld         al, #+0x4
     4CA:	0110      	ld         ah, #+0x1
     4CB:	0100      	**prefx    0x1
     4CC:	F100      	**prefx    0xF1
     4CD:	DF9C      	bsr        +0xF0DF <PioSet:0xF5AC[p]>
                 ledBlinkCount = 0; 
     4CE:	0014      	ld         al, #+0x0
     4CF:	3800      	**prefx    0x38
     4D0:	2225      	st         al, @0x3822 <ledBlinkCount.2564.>
                 SendSerialDebugVars();
     4D1:	FF00      	**prefx    0xFF
     4D2:	3E9C      	bsr        -0xC2 <SendSerialDebugVars:0x410[p]>
              }     
              SetRadioToAdvertise();
     4D3:	559C      	bsr        +0x55 <SetRadioToAdvertise:0x528[p]>
     4D4:	16E0      	bra        +0x16 <.JTBASE27+0xA3:0x4EA[p]>
              break;
           default :
              PioSet(LED_PIO, FALSE); 
     4D5:	0414      	ld         al, #+0x4
     4D6:	0010      	ld         ah, #+0x0
     4D7:	0100      	**prefx    0x1
     4D8:	F100      	**prefx    0xF1
     4D9:	D39C      	bsr        +0xF0D3 <PioSet:0xF5AC[p]>
              broadcast_tid = TimerCreate(1*MILLISECOND, TRUE, HandleTimer); 
     4DA:	0400      	**prefx    0x4
     4DB:	2E10      	ld         ah, #+0x42E
     4DC:	0114      	ld         al, #+0x1
     4DD:	0027      	st         al, @(0x0, y)
     4DE:	0123      	st         ah, @(+0x1, y)
     4DF:	0010      	ld         ah, #+0x0
     4E0:	0400      	**prefx    0x4
     4E1:	E814      	ld         al, #+0x3E8
     4E2:	0100      	**prefx    0x1
     4E3:	DC00      	**prefx    0xDC
     4E4:	179C      	bsr        +0xDC17 <TimerCreate:0xE0FB[p]>
     4E5:	3900      	**prefx    0x39
     4E6:	D125      	st         al, @0x38D1 <broadcast_tid>
              state = 0;
     4E7:	0014      	ld         al, #+0x0
     4E8:	3800      	**prefx    0x38
     4E9:	2325      	st         al, @0x3823 <state.2563.>
        }        
        state++;
     4EA:	3800      	**prefx    0x38
     4EB:	2315      	ld         al, @0x3823 <state.2563.>
     4EC:	0134      	add        al, #+0x1
     4ED:	3800      	**prefx    0x38
     4EE:	2325      	st         al, @0x3823 <state.2563.>
        ledBlinkCount++;
     4EF:	3800      	**prefx    0x38
     4F0:	2215      	ld         al, @0x3822 <ledBlinkCount.2564.>
     4F1:	0134      	add        al, #+0x1
     4F2:	3800      	**prefx    0x38
     4F3:	2225      	st         al, @0x3822 <ledBlinkCount.2564.>
     4F4:	05E0      	bra        +0x5 <.JTBASE27+0xB2:0x4F9[p]>
        
    } else {
       AppDebugWriteString("Invalid Timer!!!!!");        
     4F5:	3800      	**prefx    0x38
     4F6:	A014      	ld         al, #+0x37A0
     4F7:	0200      	**prefx    0x2
     4F8:	369C      	bsr        +0x236 <DebugWriteString:0x72E[p]>
    }
}
     4F9:	050F      	leave      #+0x5

0x000004FA <SetRadioToIdle>:

void SetRadioToIdle()
{
     4FA:	020B      	enter      #+0x2
    LsStartStopScan( FALSE, whitelist_disabled, ls_addr_type_public ); 
     4FB:	0014      	ld         al, #+0x0
     4FC:	0027      	st         al, @(0x0, y)
     4FD:	0014      	ld         al, #+0x0
     4FE:	0010      	ld         ah, #+0x0
     4FF:	0100      	**prefx    0x1
     500:	8B00      	**prefx    0x8B
     501:	569C      	bsr        +0x8B56 <LsStartStopScan:0x9057[p]>
    LsStartStopAdvertise(FALSE, whitelist_disabled, ls_addr_type_random);    
     502:	0114      	ld         al, #+0x1
     503:	0027      	st         al, @(0x0, y)
     504:	0014      	ld         al, #+0x0
     505:	0010      	ld         ah, #+0x0
     506:	0200      	**prefx    0x2
     507:	F79C      	bsr        +0x1F7 <LsStartStopAdvertise:0x6FE[p]>
}
     508:	020F      	leave      #+0x2

0x00000509 <SetRadioToListen>:

void SetRadioToListen()
{
     509:	040B      	enter      #+0x4
    setRadioToListenCalls++;
     50A:	3800      	**prefx    0x38
     50B:	3D15      	ld         al, @0x383D <setRadioToListenCalls>
     50C:	0134      	add        al, #+0x1
     50D:	3800      	**prefx    0x38
     50E:	3D25      	st         al, @0x383D <setRadioToListenCalls>
    LsStartStopAdvertise(FALSE, whitelist_disabled, ls_addr_type_random);    
     50F:	0114      	ld         al, #+0x1
     510:	0027      	st         al, @(0x0, y)
     511:	0014      	ld         al, #+0x0
     512:	0010      	ld         ah, #+0x0
     513:	0200      	**prefx    0x2
     514:	EA9C      	bsr        +0x1EA <LsStartStopAdvertise:0x6FE[p]>
    GapSetMode( gap_role_observer, gap_mode_discover_no, gap_mode_connect_no, gap_mode_bond_no, gap_mode_security_none ); 
     515:	0114      	ld         al, #+0x1
     516:	0027      	st         al, @(0x0, y)
     517:	0114      	ld         al, #+0x1
     518:	0127      	st         al, @(+0x1, y)
     519:	0014      	ld         al, #+0x0
     51A:	0227      	st         al, @(+0x2, y)
     51B:	0214      	ld         al, #+0x2
     51C:	0110      	ld         ah, #+0x1
     51D:	0100      	**prefx    0x1
     51E:	8900      	**prefx    0x89
     51F:	DD9C      	bsr        +0x88DD <GapSetMode:0x8DFC[p]>
    LsStartStopScan( TRUE, whitelist_disabled, ls_addr_type_public ); 
     520:	0014      	ld         al, #+0x0
     521:	0027      	st         al, @(0x0, y)
     522:	0114      	ld         al, #+0x1
     523:	0010      	ld         ah, #+0x0
     524:	0100      	**prefx    0x1
     525:	8B00      	**prefx    0x8B
     526:	319C      	bsr        +0x8B31 <LsStartStopScan:0x9057[p]>
}
     527:	040F      	leave      #+0x4

0x00000528 <SetRadioToAdvertise>:

void SetRadioToAdvertise()
{
     528:	060B      	enter      #+0x6
    bool isDupe = TRUE;
     529:	0114      	ld         al, #+0x1
     52A:	0427      	st         al, @(+0x4, y)
    uint8 i = 0;
     52B:	0014      	ld         al, #+0x0
     52C:	0327      	st         al, @(+0x3, y)
    
    setRadioToAdvertiseCalls++;
     52D:	3800      	**prefx    0x38
     52E:	3C15      	ld         al, @0x383C <setRadioToAdvertiseCalls>
     52F:	0134      	add        al, #+0x1
     530:	3800      	**prefx    0x38
     531:	3C25      	st         al, @0x383C <setRadioToAdvertiseCalls>
    LsStartStopScan( FALSE, whitelist_disabled, ls_addr_type_public ); 
     532:	0014      	ld         al, #+0x0
     533:	0027      	st         al, @(0x0, y)
     534:	0014      	ld         al, #+0x0
     535:	0010      	ld         ah, #+0x0
     536:	0100      	**prefx    0x1
     537:	8B00      	**prefx    0x8B
     538:	1F9C      	bsr        +0x8B1F <LsStartStopScan:0x9057[p]>
    isDupe = CopyArrayCheckIfDuplicate(advData, priorAdvData, PACKET_SIZE);
     539:	0914      	ld         al, #+0x9
     53A:	0027      	st         al, @(0x0, y)
     53B:	3900      	**prefx    0x39
     53C:	DB14      	ld         al, #+0x38DB
     53D:	3900      	**prefx    0x39
     53E:	D210      	ld         ah, #+0x38D2
     53F:	FE00      	**prefx    0xFE
     540:	579C      	bsr        -0x1A9 <CopyArrayCheckIfDuplicate:0x397[p]>
     541:	0427      	st         al, @(+0x4, y)
    if (!isDupe) {
     542:	049B      	tst        @(+0x4, y)
     543:	2BF0      	bne        +0x2B <SetRadioToAdvertise+0x46:0x56E[p]>
        autoIncrement++;
     544:	3900      	**prefx    0x39
     545:	EA15      	ld         al, @0x38EA <DATA_BSS_APP_END>
     546:	0134      	add        al, #+0x1
     547:	3900      	**prefx    0x39
     548:	EA25      	st         al, @0x38EA <DATA_BSS_APP_END>
        if (autoIncrement == 0xFF) autoIncrement++;  /* 0xFF is the tag for the transmitting character */
     549:	3900      	**prefx    0x39
     54A:	EA15      	ld         al, @0x38EA <DATA_BSS_APP_END>
     54B:	0100      	**prefx    0x1
     54C:	FF84      	cmp        al, #+0xFF
     54D:	06F0      	bne        +0x6 <SetRadioToAdvertise+0x2B:0x553[p]>
     54E:	3900      	**prefx    0x39
     54F:	EA15      	ld         al, @0x38EA <DATA_BSS_APP_END>
     550:	0134      	add        al, #+0x1
     551:	3900      	**prefx    0x39
     552:	EA25      	st         al, @0x38EA <DATA_BSS_APP_END>
        advData[8] = autoIncrement;  /* put a rolling tag number on packets for packet tracking */
     553:	3900      	**prefx    0x39
     554:	EA15      	ld         al, @0x38EA <DATA_BSS_APP_END>
     555:	3900      	**prefx    0x39
     556:	E325      	st         al, @0x38E3 <advData+0x8>
        priorAdvData[8] = advData[8];  /* so we don't change each time based on autoincrement change */
     557:	3900      	**prefx    0x39
     558:	E315      	ld         al, @0x38E3 <advData+0x8>
     559:	3900      	**prefx    0x39
     55A:	DA25      	st         al, @0x38DA <priorAdvData+0x8>
                /* TODO  block out 0xFE as an error code when you see someone transmit to you with your own character num */
        for (i=0; i < PACKET_SIZE; i++)
     55B:	0014      	ld         al, #+0x0
     55C:	0327      	st         al, @(+0x3, y)
     55D:	0AE0      	bra        +0xA <SetRadioToAdvertise+0x3F:0x567[p]>
            DebugWriteUint8(advData[i]); /* my observations won't come in over RF, send now */
     55E:	031B      	ld         x, @(+0x3, y)
     55F:	3900      	**prefx    0x39
     560:	DB16      	ld         al, @(+0x38DB, x)
     561:	0200      	**prefx    0x2
     562:	0C9C      	bsr        +0x20C <DebugWriteUint8:0x76E[p]>
        autoIncrement++;
        if (autoIncrement == 0xFF) autoIncrement++;  /* 0xFF is the tag for the transmitting character */
        advData[8] = autoIncrement;  /* put a rolling tag number on packets for packet tracking */
        priorAdvData[8] = advData[8];  /* so we don't change each time based on autoincrement change */
                /* TODO  block out 0xFE as an error code when you see someone transmit to you with your own character num */
        for (i=0; i < PACKET_SIZE; i++)
     563:	0317      	ld         al, @(+0x3, y)
     564:	E119      	ld         x, @0xFFE1 <register al>
     565:	0138      	add        x, #+0x1
     566:	032B      	st         x, @(+0x3, y)
     567:	0317      	ld         al, @(+0x3, y)
     568:	0884      	cmp        al, #+0x8
     569:	F52C      	bcz        -0xB <SetRadioToAdvertise+0x36:0x55E[p]>
            DebugWriteUint8(advData[i]); /* my observations won't come in over RF, send now */
    
        DebugWriteString("\r\n");   
     56A:	3800      	**prefx    0x38
     56B:	9D14      	ld         al, #+0x379D
     56C:	0200      	**prefx    0x2
     56D:	C19C      	bsr        +0x1C1 <DebugWriteString:0x72E[p]>
    }
    LsStoreAdvScanData(0, NULL, ad_src_advertise);  /* clear advertising data */
     56E:	0014      	ld         al, #+0x0
     56F:	0027      	st         al, @(0x0, y)
     570:	0014      	ld         al, #+0x0
     571:	0010      	ld         ah, #+0x0
     572:	0100      	**prefx    0x1
     573:	7C9C      	bsr        +0x17C <LsStoreAdvScanData:0x6EF[p]>
    GapSetMode(gap_role_broadcaster, gap_mode_discover_no, gap_mode_connect_no, gap_mode_bond_no, gap_mode_security_none);
     574:	0114      	ld         al, #+0x1
     575:	0027      	st         al, @(0x0, y)
     576:	0114      	ld         al, #+0x1
     577:	0127      	st         al, @(+0x1, y)
     578:	0014      	ld         al, #+0x0
     579:	0227      	st         al, @(+0x2, y)
     57A:	0114      	ld         al, #+0x1
     57B:	0110      	ld         ah, #+0x1
     57C:	0100      	**prefx    0x1
     57D:	8800      	**prefx    0x88
     57E:	7E9C      	bsr        +0x887E <GapSetMode:0x8DFC[p]>
    LsStoreAdvScanData(9, advData, ad_src_advertise); /* put latest copy of heat map in advertising header */
     57F:	0014      	ld         al, #+0x0
     580:	0027      	st         al, @(0x0, y)
     581:	0914      	ld         al, #+0x9
     582:	3900      	**prefx    0x39
     583:	DB10      	ld         ah, #+0x38DB
     584:	0100      	**prefx    0x1
     585:	6A9C      	bsr        +0x16A <LsStoreAdvScanData:0x6EF[p]>
    LsStartStopAdvertise(TRUE, whitelist_disabled, ls_addr_type_random);    
     586:	0114      	ld         al, #+0x1
     587:	0027      	st         al, @(0x0, y)
     588:	0114      	ld         al, #+0x1
     589:	0010      	ld         ah, #+0x0
     58A:	0100      	**prefx    0x1
     58B:	739C      	bsr        +0x173 <LsStartStopAdvertise:0x6FE[p]>
}
     58C:	060F      	leave      #+0x6

0x0000058D <AppInit>:

void AppInit(sleep_state last_sleep_state)
{
     58D:	040B      	enter      #+0x4
     58E:	0227      	st         al, @(+0x2, y)
    /* Initialise application timers as soon as possible */
    TimerInit(MAX_APP_TIMERS, (void*)app_timers);
     58F:	0214      	ld         al, #+0x2
     590:	3800      	**prefx    0x38
     591:	2D10      	ld         ah, #+0x382D
     592:	0100      	**prefx    0x1
     593:	DA00      	**prefx    0xDA
     594:	169C      	bsr        +0xDA16 <TimerInit:0xDFAA[p]>
    SetRadioToListen();
     595:	FF00      	**prefx    0xFF
     596:	739C      	bsr        -0x8D <SetRadioToListen:0x509[p]>
    GapSetScanType(ls_scan_type_passive);  
     597:	0014      	ld         al, #+0x0
     598:	0100      	**prefx    0x1
     599:	8900      	**prefx    0x89
     59A:	2F9C      	bsr        +0x892F <GapSetScanType:0x8EC9[p]>
    GapSetScanInterval (10000, 10000);  /* set to continuous when used. scan window and interval same */
     59B:	0014      	ld         al, #+0x0
     59C:	0027      	st         al, @(0x0, y)
     59D:	2700      	**prefx    0x27
     59E:	1014      	ld         al, #+0x2710
     59F:	0127      	st         al, @(+0x1, y)
     5A0:	0010      	ld         ah, #+0x0
     5A1:	2700      	**prefx    0x27
     5A2:	1014      	ld         al, #+0x2710
     5A3:	0100      	**prefx    0x1
     5A4:	8900      	**prefx    0x89
     5A5:	059C      	bsr        +0x8905 <GapSetScanInterval:0x8EAA[p]>
    AppDebugInit();  
     5A6:	FE00      	**prefx    0xFE
     5A7:	DB9C      	bsr        -0x225 <AppDebugInit:0x382[p]>
    GattInit();
     5A8:	0100      	**prefx    0x1
     5A9:	619C      	bsr        +0x161 <GattInit:0x70A[p]>
    DebugInit(1, uartRxDataCallback, NULL);
     5AA:	0014      	ld         al, #+0x0
     5AB:	0027      	st         al, @(0x0, y)
     5AC:	0114      	ld         al, #+0x1
     5AD:	0400      	**prefx    0x4
     5AE:	8F10      	ld         ah, #+0x38F
     5AF:	0200      	**prefx    0x2
     5B0:	C49C      	bsr        +0x1C4 <DebugInit:0x774[p]>
    AppDebugWriteString("T2L Character ");
     5B1:	3800      	**prefx    0x38
     5B2:	B314      	ld         al, #+0x37B3
     5B3:	0100      	**prefx    0x1
     5B4:	7A9C      	bsr        +0x17A <DebugWriteString:0x72E[p]>
    DebugWriteUint8(CHARACTER_NUM);             
     5B5:	0514      	ld         al, #+0x5
     5B6:	0200      	**prefx    0x2
     5B7:	B79C      	bsr        +0x1B7 <DebugWriteUint8:0x76E[p]>
    AppDebugWriteString("  v2.50\r\n");
     5B8:	3800      	**prefx    0x38
     5B9:	C214      	ld         al, #+0x37C2
     5BA:	0100      	**prefx    0x1
     5BB:	739C      	bsr        +0x173 <DebugWriteString:0x72E[p]>
    PioSetDir(LED_PIO, TRUE);  /* set LED pin as output */
     5BC:	0414      	ld         al, #+0x4
     5BD:	0110      	ld         ah, #+0x1
     5BE:	0100      	**prefx    0x1
     5BF:	F200      	**prefx    0xF2
     5C0:	B49C      	bsr        +0xF1B4 <PioSetDir:0xF774[p]>
    PioSet(LED_PIO, TRUE);  /* set LED pin to high */
     5C1:	0414      	ld         al, #+0x4
     5C2:	0110      	ld         ah, #+0x1
     5C3:	0100      	**prefx    0x1
     5C4:	F000      	**prefx    0xF0
     5C5:	E79C      	bsr        +0xEFE7 <PioSet:0xF5AC[p]>
    broadcast_tid = TimerCreate( 300*MILLISECOND, TRUE, HandleTimer);
     5C6:	0400      	**prefx    0x4
     5C7:	2E10      	ld         ah, #+0x42E
     5C8:	0114      	ld         al, #+0x1
     5C9:	0027      	st         al, @(0x0, y)
     5CA:	0123      	st         ah, @(+0x1, y)
     5CB:	0410      	ld         ah, #+0x4
     5CC:	9400      	**prefx    0x94
     5CD:	E014      	ld         al, #-0x6C20
     5CE:	0100      	**prefx    0x1
     5CF:	DB00      	**prefx    0xDB
     5D0:	2B9C      	bsr        +0xDB2B <TimerCreate:0xE0FB[p]>
     5D1:	3900      	**prefx    0x39
     5D2:	D125      	st         al, @0x38D1 <broadcast_tid>
    InitHeatMap(); 
     5D3:	FE00      	**prefx    0xFE
     5D4:	EB9C      	bsr        -0x215 <InitHeatMap:0x3BF[p]>
}
     5D5:	040F      	leave      #+0x4

0x000005D6 <ProcessPacket>:

void ProcessPacket(LM_EVENT_T *event_data)
{
     5D6:	150B      	enter      #+0x15
     5D7:	1327      	st         al, @(+0x13, y)
    uint8 i = 0, j = 0, k = 0, m = 0, lsb = 0, msb = 0;
     5D8:	0014      	ld         al, #+0x0
     5D9:	0927      	st         al, @(+0x9, y)
     5DA:	0014      	ld         al, #+0x0
     5DB:	0827      	st         al, @(+0x8, y)
     5DC:	0014      	ld         al, #+0x0
     5DD:	0727      	st         al, @(+0x7, y)
     5DE:	0014      	ld         al, #+0x0
     5DF:	0627      	st         al, @(+0x6, y)
     5E0:	0014      	ld         al, #+0x0
     5E1:	0527      	st         al, @(+0x5, y)
     5E2:	0014      	ld         al, #+0x0
     5E3:	0427      	st         al, @(+0x4, y)
    uint8 receivedData[PACKET_SIZE];
    static uint8 priorReceivedData[PACKET_SIZE] = {0};

    processedPacketCalls++;
     5E4:	3800      	**prefx    0x38
     5E5:	3915      	ld         al, @0x3839 <processedPacketCalls>
     5E6:	0134      	add        al, #+0x1
     5E7:	3800      	**prefx    0x38
     5E8:	3925      	st         al, @0x3839 <processedPacketCalls>
    /* uint8 pointer arithmetic seems to move in 16 bit increments so on packed bytes use uint16 */
    uint8* transptr = NULL;
     5E9:	0014      	ld         al, #+0x0
     5EA:	0327      	st         al, @(+0x3, y)
    transptr = (uint8*)event_data + sizeof(LM_EV_ADVERTISING_REPORT_T);
     5EB:	1317      	ld         al, @(+0x13, y)
     5EC:	E119      	ld         x, @0xFFE1 <register al>
     5ED:	0A38      	add        x, #+0xA
     5EE:	032B      	st         x, @(+0x3, y)
    /* the data payload is after the struct see CSR forum 
         https://forum.csr.com/forum/main-category/main-forum/software/295-entering-observer-role */
    transptr += 2; 
     5EF:	0317      	ld         al, @(+0x3, y)
     5F0:	E119      	ld         x, @0xFFE1 <register al>
     5F1:	0238      	add        x, #+0x2
     5F2:	032B      	st         x, @(+0x3, y)
    uint16* eventDataPtr = (uint16*) transptr;
     5F3:	0317      	ld         al, @(+0x3, y)
     5F4:	0227      	st         al, @(+0x2, y)
    uint16 the_word = 0;           
     5F5:	0014      	ld         al, #+0x0
     5F6:	0127      	st         al, @(+0x1, y)
    
    if(WORD_LSB(*eventDataPtr) != AD_TYPE_MANUF) 
     5F7:	021B      	ld         x, @(+0x2, y)
     5F8:	0016      	ld         al, @(0x0, x)
     5F9:	0100      	**prefx    0x1
     5FA:	FFC4      	and        al, #0xFF
     5FB:	0100      	**prefx    0x1
     5FC:	FF84      	cmp        al, #+0xFF
     5FD:	7AF0      	bne        +0x7A <ProcessPacket+0xA1:0x677[p]>
        return;  /* zero character in data packet array is not correct */
    
    for (i = 0; i <= PACKET_SIZE/2; i++)
     5FE:	0014      	ld         al, #+0x0
     5FF:	0927      	st         al, @(+0x9, y)
     600:	2DE0      	bra        +0x2D <ProcessPacket+0x57:0x62D[p]>
    {
        the_word = *eventDataPtr;
     601:	021B      	ld         x, @(+0x2, y)
     602:	0016      	ld         al, @(0x0, x)
     603:	0127      	st         al, @(+0x1, y)
        lsb = WORD_LSB(the_word);  /* TODO remove cleanup intermediaries */
     604:	0117      	ld         al, @(+0x1, y)
     605:	0100      	**prefx    0x1
     606:	FFC4      	and        al, #0xFF
     607:	0527      	st         al, @(+0x5, y)
        receivedData[j++] = lsb;
     608:	0813      	ld         ah, @(+0x8, y)
     609:	E415      	ld         al, @0xFFE4 <register uy>
     60A:	0A34      	add        al, #+0xA
     60B:	E119      	ld         x, @0xFFE1 <register al>
     60C:	E039      	add        x, @0xFFE0 <register ah>
     60D:	0517      	ld         al, @(+0x5, y)
     60E:	0026      	st         al, @(0x0, x)
     60F:	0817      	ld         al, @(+0x8, y)
     610:	E119      	ld         x, @0xFFE1 <register al>
     611:	0138      	add        x, #+0x1
     612:	082B      	st         x, @(+0x8, y)

        if(i<4) /* don't want the byte from the last half of last word */
     613:	0917      	ld         al, @(+0x9, y)
     614:	0484      	cmp        al, #+0x4
     615:	10F8      	bcc        +0x10 <ProcessPacket+0x4F:0x625[p]>
        {  
            msb = WORD_MSB(the_word);
     616:	0113      	ld         ah, @(+0x1, y)
     617:	0009      	**unsigned
     618:	08A4      	lsr        #0x8
     619:	0423      	st         ah, @(+0x4, y)
            receivedData[j++] = msb;
     61A:	0813      	ld         ah, @(+0x8, y)
     61B:	E415      	ld         al, @0xFFE4 <register uy>
     61C:	0A34      	add        al, #+0xA
     61D:	E119      	ld         x, @0xFFE1 <register al>
     61E:	E039      	add        x, @0xFFE0 <register ah>
     61F:	0417      	ld         al, @(+0x4, y)
     620:	0026      	st         al, @(0x0, x)
     621:	0817      	ld         al, @(+0x8, y)
     622:	E119      	ld         x, @0xFFE1 <register al>
     623:	0138      	add        x, #+0x1
     624:	082B      	st         x, @(+0x8, y)
        }   
        eventDataPtr++;
     625:	0217      	ld         al, @(+0x2, y)
     626:	E119      	ld         x, @0xFFE1 <register al>
     627:	0138      	add        x, #+0x1
     628:	022B      	st         x, @(+0x2, y)
    uint16 the_word = 0;           
    
    if(WORD_LSB(*eventDataPtr) != AD_TYPE_MANUF) 
        return;  /* zero character in data packet array is not correct */
    
    for (i = 0; i <= PACKET_SIZE/2; i++)
     629:	0917      	ld         al, @(+0x9, y)
     62A:	E119      	ld         x, @0xFFE1 <register al>
     62B:	0138      	add        x, #+0x1
     62C:	092B      	st         x, @(+0x9, y)
     62D:	0917      	ld         al, @(+0x9, y)
     62E:	0484      	cmp        al, #+0x4
     62F:	D22C      	bcz        -0x2E <ProcessPacket+0x2B:0x601[p]>
            receivedData[j++] = msb;
        }   
        eventDataPtr++;
    }
    
    for (k = 1; k < PACKET_SIZE - 2; k++)  /* skip array slots that are not character RSSIs 1-6 only */
     630:	0114      	ld         al, #+0x1
     631:	0727      	st         al, @(+0x7, y)
     632:	22E0      	bra        +0x22 <ProcessPacket+0x7E:0x654[p]>
    {
        if(receivedData[k] == MY_SPOT_MARK_FF && event_data->adv_report.rssi < 0xFE &&
     633:	0713      	ld         ah, @(+0x7, y)
     634:	E415      	ld         al, @0xFFE4 <register uy>
     635:	0A34      	add        al, #+0xA
     636:	E119      	ld         x, @0xFFE1 <register al>
     637:	E039      	add        x, @0xFFE0 <register ah>
     638:	0016      	ld         al, @(0x0, x)
     639:	0100      	**prefx    0x1
     63A:	FF84      	cmp        al, #+0xFF
     63B:	15F0      	bne        +0x15 <ProcessPacket+0x7A:0x650[p]>
     63C:	131B      	ld         x, @(+0x13, y)
     63D:	0916      	ld         al, @(+0x9, x)
     63E:	0100      	**prefx    0x1
     63F:	FD84      	cmp        al, #+0xFD
     640:	1020      	bgt        +0x10 <ProcessPacket+0x7A:0x650[p]>
     641:	131B      	ld         x, @(+0x13, y)
     642:	0916      	ld         al, @(+0x9, x)
     643:	1084      	cmp        al, #+0x10
     644:	0C28      	ble        +0xC <ProcessPacket+0x7A:0x650[p]>
            event_data->adv_report.rssi > 0x10)
        {
            advData[k] = event_data->adv_report.rssi; /* record the new RSSI seen for character number k */
     645:	0713      	ld         ah, @(+0x7, y)
     646:	131B      	ld         x, @(+0x13, y)
     647:	0916      	ld         al, @(+0x9, x)
     648:	E019      	ld         x, @0xFFE0 <register ah>
     649:	3900      	**prefx    0x39
     64A:	DB26      	st         al, @(+0x38DB, x)
               /* TODO add recursive filter here but don't kill derivative for thrown doll detect */
            processedPacketSuccess++;
     64B:	3800      	**prefx    0x38
     64C:	3A15      	ld         al, @0x383A <processedPacketSuccess>
     64D:	0134      	add        al, #+0x1
     64E:	3800      	**prefx    0x38
     64F:	3A25      	st         al, @0x383A <processedPacketSuccess>
            receivedData[j++] = msb;
        }   
        eventDataPtr++;
    }
    
    for (k = 1; k < PACKET_SIZE - 2; k++)  /* skip array slots that are not character RSSIs 1-6 only */
     650:	0717      	ld         al, @(+0x7, y)
     651:	E119      	ld         x, @0xFFE1 <register al>
     652:	0138      	add        x, #+0x1
     653:	072B      	st         x, @(+0x7, y)
     654:	0717      	ld         al, @(+0x7, y)
     655:	0684      	cmp        al, #+0x6
     656:	DD2C      	bcz        -0x23 <ProcessPacket+0x5D:0x633[p]>
            advData[k] = event_data->adv_report.rssi; /* record the new RSSI seen for character number k */
               /* TODO add recursive filter here but don't kill derivative for thrown doll detect */
            processedPacketSuccess++;
        }
    }
    if(CopyArrayCheckIfDuplicate(receivedData, priorReceivedData, PACKET_SIZE)) 
     657:	E415      	ld         al, @0xFFE4 <register uy>
     658:	0A34      	add        al, #+0xA
     659:	0910      	ld         ah, #+0x9
     65A:	0023      	st         ah, @(0x0, y)
     65B:	3800      	**prefx    0x38
     65C:	2410      	ld         ah, #+0x3824
     65D:	FD00      	**prefx    0xFD
     65E:	399C      	bsr        -0x2C7 <CopyArrayCheckIfDuplicate:0x397[p]>
     65F:	E199      	tst        @0xFFE1 <register al>
     660:	17F0      	bne        +0x17 <ProcessPacket+0xA1:0x677[p]>
        return;  /* no need for UART sending repeated packet */
    
    for (m = 0; m < PACKET_SIZE; m++)            
     661:	0014      	ld         al, #+0x0
     662:	0627      	st         al, @(+0x6, y)
     663:	0DE0      	bra        +0xD <ProcessPacket+0x9A:0x670[p]>
       DebugWriteUint8(receivedData[m]); 
     664:	0613      	ld         ah, @(+0x6, y)
     665:	E415      	ld         al, @0xFFE4 <register uy>
     666:	0A34      	add        al, #+0xA
     667:	E119      	ld         x, @0xFFE1 <register al>
     668:	E039      	add        x, @0xFFE0 <register ah>
     669:	0016      	ld         al, @(0x0, x)
     66A:	0100      	**prefx    0x1
     66B:	039C      	bsr        +0x103 <DebugWriteUint8:0x76E[p]>
        }
    }
    if(CopyArrayCheckIfDuplicate(receivedData, priorReceivedData, PACKET_SIZE)) 
        return;  /* no need for UART sending repeated packet */
    
    for (m = 0; m < PACKET_SIZE; m++)            
     66C:	0617      	ld         al, @(+0x6, y)
     66D:	E119      	ld         x, @0xFFE1 <register al>
     66E:	0138      	add        x, #+0x1
     66F:	062B      	st         x, @(+0x6, y)
     670:	0617      	ld         al, @(+0x6, y)
     671:	0884      	cmp        al, #+0x8
     672:	F22C      	bcz        -0xE <ProcessPacket+0x8E:0x664[p]>
       DebugWriteUint8(receivedData[m]); 

    DebugWriteString("\r\n");       
     673:	3800      	**prefx    0x38
     674:	9D14      	ld         al, #+0x379D
     675:	0100      	**prefx    0x1
     676:	B89C      	bsr        +0xB8 <DebugWriteString:0x72E[p]>
}
     677:	150F      	leave      #+0x15

0x00000678 <AppProcessLmEvent>:

extern bool AppProcessLmEvent(lm_event_code event_code, LM_EVENT_T *event_data)
{   /* TODO determine if we want to mask and fix the advertising channel or use all 3 */
     678:	030B      	enter      #+0x3
     679:	0027      	st         al, @(0x0, y)
     67A:	0123      	st         ah, @(+0x1, y)
        
     appProcessLmEventCalls++;
     67B:	3800      	**prefx    0x38
     67C:	3E15      	ld         al, @0x383E <appProcessLmEventCalls>
     67D:	0134      	add        al, #+0x1
     67E:	3800      	**prefx    0x38
     67F:	3E25      	st         al, @0x383E <appProcessLmEventCalls>
     switch (event_code) 
     680:	0017      	ld         al, @(0x0, y)
     681:	3F84      	cmp        al, #+0x3F
     682:	0CF0      	bne        +0xC <___libgatt_lib_db_4189+0x15:0x68E[p]>
     {
        case LM_EV_ADVERTISING_REPORT:
        {
            if (event_data->adv_report.data.event_type != 3 || event_data->adv_report.data.length_data != 0x0D)
     683:	011B      	ld         x, @(+0x1, y)
     684:	0216      	ld         al, @(+0x2, x)
     685:	0384      	cmp        al, #+0x3
     686:	08F0      	bne        +0x8 <___libgatt_lib_db_4189+0x15:0x68E[p]>
     687:	011B      	ld         x, @(+0x1, y)
     688:	0816      	ld         al, @(+0x8, x)
     689:	0D84      	cmp        al, #+0xD
     68A:	04F0      	bne        +0x4 <___libgatt_lib_db_4189+0x15:0x68E[p]>
                break;  /* we only want to see broadcasts with our packet length */ 
           
            ProcessPacket(event_data);            
     68B:	0117      	ld         al, @(+0x1, y)
     68C:	FF00      	**prefx    0xFF
     68D:	499C      	bsr        -0xB7 <ProcessPacket:0x5D6[p]>
        {
        }
        break;
     }
 
    return TRUE;
     68E:	0114      	ld         al, #+0x1
}
     68F:	030F      	leave      #+0x3

0x00000690 <___libgatt_lib_db_4563>:
     690:	010B      	enter      #+0x1
     691:	9400      	**prefx    0x94
     692:	6E15      	ld         al, @0x946E <___libgatt_lib_db_79+0x1>
     693:	0AF4      	beq        +0xA <___libgatt_lib_db_4563+0xD:0x69D[p]>
     694:	3800      	**prefx    0x38
     695:	3F11      	ld         ah, @0x383F <appProcessLmEventCalls+0x1>
     696:	E000      	**prefx    0xE0
     697:	1930      	add        ah, #-0x1FE7
     698:	FF23      	st         ah, @(-0x1, y)
     699:	FF9F      	bsr        @(-0x1, y)
     69A:	0014      	ld         al, #+0x0
     69B:	9400      	**prefx    0x94
     69C:	6E25      	st         al, @0x946E <___libgatt_lib_db_79+0x1>
     69D:	010F      	leave      #+0x1

0x0000069E <.LFB7>:
     69E:	020B      	enter      #+0x2
     69F:	9300      	**prefx    0x93
     6A0:	6519      	ld         x, @0x9365 <___libgatt_lib_db_18>
     6A1:	9300      	**prefx    0x93
     6A2:	6815      	ld         al, @0x9368 <___libgatt_lib_db_73>
     6A3:	F825      	st         al, @0xFFF8 <(scratchpad)>
     6A4:	9400      	**prefx    0x94
     6A5:	8915      	ld         al, @0x9389 <___libgatt_lib_db_73+0x21>
     6A6:	F925      	st         al, @0xFFF9 <(scratchpad)>
     6A7:	3900      	**prefx    0x39
     6A8:	EB11      	ld         ah, @0x38EB <DATA_BSS_APP_END+0x1>
     6A9:	05F0      	bne        +0x5 <.LFB7+0x10:0x6AE[p]>
     6AA:	9300      	**prefx    0x93
     6AB:	6915      	ld         al, @0x9369 <___libgatt_lib_db_73+0x1>
     6AC:	0184      	cmp        al, #+0x1
     6AD:	35F0      	bne        +0x35 <.LFB7+0x44:0x6E2[p]>
     6AE:	F999      	tst        @0xFFF9 <(scratchpad)>
     6AF:	1AF4      	beq        +0x1A <.LFB7+0x2B:0x6C9[p]>
     6B0:	E099      	tst        @0xFFE0 <register ah>
     6B1:	18F4      	beq        +0x18 <.LFB7+0x2B:0x6C9[p]>
     6B2:	9300      	**prefx    0x93
     6B3:	6B15      	ld         al, @0x936B <___libgatt_lib_db_73+0x3>
     6B4:	0184      	cmp        al, #+0x1
     6B5:	2DF0      	bne        +0x2D <.LFB7+0x44:0x6E2[p]>
     6B6:	9300      	**prefx    0x93
     6B7:	6C15      	ld         al, @0x936C <___libgatt_lib_db_73+0x4>
     6B8:	FCC4      	and        al, #0xFFFC
     6B9:	9300      	**prefx    0x93
     6BA:	6C25      	st         al, @0x936C <___libgatt_lib_db_73+0x4>
     6BB:	FE38      	add        x, #-0x2
     6BC:	0388      	cmp        x, #+0x3
     6BD:	0CF8      	bcc        +0xC <.LFB7+0x2B:0x6C9[p]>
     6BE:	F819      	ld         x, @0xFFF8 <(scratchpad)>
     6BF:	0288      	cmp        x, #+0x2
     6C0:	03F0      	bne        +0x3 <.LFB7+0x25:0x6C3[p]>
     6C1:	01B4      	or         al, #+0x1
     6C2:	05E0      	bra        +0x5 <.LFB7+0x29:0x6C7[p]>
     6C3:	F819      	ld         x, @0xFFF8 <(scratchpad)>
     6C4:	0388      	cmp        x, #+0x3
     6C5:	04F0      	bne        +0x4 <.LFB7+0x2B:0x6C9[p]>
     6C6:	02B4      	or         al, #+0x2
     6C7:	9300      	**prefx    0x93
     6C8:	6C25      	st         al, @0x936C <___libgatt_lib_db_73+0x4>
     6C9:	3800      	**prefx    0x38
     6CA:	3F19      	ld         x, @0x383F <appProcessLmEventCalls+0x1>
     6CB:	CF00      	**prefx    0xCF
     6CC:	E438      	add        x, #-0x311C
     6CD:	0014      	ld         al, #+0x0
     6CE:	0027      	st         al, @(0x0, y)
     6CF:	9300      	**prefx    0x93
     6D0:	6A14      	ld         al, #-0x6C96
     6D1:	F911      	ld         ah, @0xFFF9 <(scratchpad)>
     6D2:	FF2B      	st         x, @(-0x1, y)
     6D3:	FF9F      	bsr        @(-0x1, y)
     6D4:	9400      	**prefx    0x94
     6D5:	AD11      	ld         ah, @0x93AD <___libgatt_lib_db_73+0x45>
     6D6:	3800      	**prefx    0x38
     6D7:	3F19      	ld         x, @0x383F <appProcessLmEventCalls+0x1>
     6D8:	CF00      	**prefx    0xCF
     6D9:	E438      	add        x, #-0x311C
     6DA:	0114      	ld         al, #+0x1
     6DB:	0027      	st         al, @(0x0, y)
     6DC:	9400      	**prefx    0x94
     6DD:	8E14      	ld         al, #-0x6C72
     6DE:	FF2B      	st         x, @(-0x1, y)
     6DF:	FF9F      	bsr        @(-0x1, y)
     6E0:	0014      	ld         al, #+0x0
     6E1:	02E0      	bra        +0x2 <.LFB7+0x45:0x6E3[p]>
     6E2:	0C14      	ld         al, #+0xC
     6E3:	020F      	leave      #+0x2

0x000006E4 <___libgatt_lib_db_4564>:
     6E4:	010B      	enter      #+0x1
     6E5:	B99C      	bsr        -0x47 <.LFB7:0x69E[p]>
     6E6:	E199      	tst        @0xFFE1 <register al>
     6E7:	05F0      	bne        +0x5 <___libgatt_lib_db_4564+0x8:0x6EC[p]>
     6E8:	9000      	**prefx    0x90
     6E9:	8F14      	ld         al, #-0x7071
     6EA:	0027      	st         al, @(0x0, y)
     6EB:	03E0      	bra        +0x3 <___libgatt_lib_db_4564+0xA:0x6EE[p]>
     6EC:	0C14      	ld         al, #+0xC
     6ED:	0B0F      	leave      #+0xB
     6EE:	010F      	leave      #+0x1

0x000006EF <LsStoreAdvScanData>:
     6EF:	020B      	enter      #+0x2
     6F0:	021B      	ld         x, @(+0x2, y)
     6F1:	002B      	st         x, @(0x0, y)
     6F2:	0100      	**prefx    0x1
     6F3:	8900      	**prefx    0x89
     6F4:	C29C      	bsr        +0x88C2 <LsStoreAdvScanData_A05:0x8FB6[p]>
     6F5:	E199      	tst        @0xFFE1 <register al>
     6F6:	07F0      	bne        +0x7 <LsStoreAdvScanData+0xE:0x6FD[p]>
     6F7:	029B      	tst        @(+0x2, y)
     6F8:	04F0      	bne        +0x4 <LsStoreAdvScanData+0xD:0x6FC[p]>
     6F9:	0114      	ld         al, #+0x1
     6FA:	3900      	**prefx    0x39
     6FB:	EB25      	st         al, @0x38EB <DATA_BSS_APP_END+0x1>
     6FC:	A29C      	bsr        -0x5E <.LFB7:0x69E[p]>
     6FD:	020F      	leave      #+0x2

0x000006FE <LsStartStopAdvertise>:
     6FE:	040B      	enter      #+0x4
     6FF:	0127      	st         al, @(+0x1, y)
     700:	0223      	st         ah, @(+0x2, y)
     701:	8F9C      	bsr        -0x71 <___libgatt_lib_db_4563:0x690[p]>
     702:	0417      	ld         al, @(+0x4, y)
     703:	0027      	st         al, @(0x0, y)
     704:	0117      	ld         al, @(+0x1, y)
     705:	0213      	ld         ah, @(+0x2, y)
     706:	0100      	**prefx    0x1
     707:	8800      	**prefx    0x88
     708:	0B9C      	bsr        +0x880B <LsStartStopAdvertise_A05:0x8F13[p]>
     709:	040F      	leave      #+0x4

0x0000070A <GattInit>:
     70A:	020B      	enter      #+0x2
     70B:	0100      	**prefx    0x1
     70C:	8D00      	**prefx    0x8D
     70D:	BF9C      	bsr        +0x8CBF <___libgatt_lib_db_74:0x93CC[p]>
     70E:	0100      	**prefx    0x1
     70F:	8F00      	**prefx    0x8F
     710:	C39C      	bsr        +0x8EC3 <l2cap_init:0x95D3[p]>
     711:	0100      	**prefx    0x1
     712:	8000      	**prefx    0x80
     713:	3F9C      	bsr        +0x803F <___libgatt_lib_db_465:0x8752[p]>
     714:	FA00      	**prefx    0xFA
     715:	539C      	bsr        -0x5AD <___libgatt_lib_db_476:0x168[p]>
     716:	0600      	**prefx    0x6
     717:	0714      	ld         al, #+0x607
     718:	9300      	**prefx    0x93
     719:	6025      	st         al, @0x9360 <DATA_ROMDATA_START>
     71A:	0100      	**prefx    0x1
     71B:	9200      	**prefx    0x92
     71C:	609C      	bsr        +0x9260 <___libgatt_lib_db_139:0x997C[p]>
     71D:	2E18      	ld         x, #+0x2E
     71E:	002B      	st         x, @(0x0, y)
     71F:	9700      	**prefx    0x97
     720:	D714      	ld         al, #-0x6929
     721:	0010      	ld         ah, #+0x0
     722:	0100      	**prefx    0x1
     723:	8600      	**prefx    0x86
     724:	E99C      	bsr        +0x85E9 <MemSet:0x8D0D[p]>
     725:	FF14      	ld         al, #-0x1
     726:	9700      	**prefx    0x97
     727:	D718      	ld         x, #-0x6929
     728:	0026      	st         al, @(0x0, x)
     729:	9700      	**prefx    0x97
     72A:	EE25      	st         al, @0x96EE <___libgatt_lib_db_127+0xC>
     72B:	0200      	**prefx    0x2
     72C:	999C      	bsr        +0x199 <___libgatt_lib_db_4554:0x8C5[p]>
     72D:	020F      	leave      #+0x2

0x0000072E <DebugWriteString>:
     72E:	020B      	enter      #+0x2
     72F:	0027      	st         al, @(0x0, y)
     730:	0100      	**prefx    0x1
     731:	AC00      	**prefx    0xAC
     732:	A09C      	bsr        +0xABA0 <StrLen:0xB2D2[p]>
     733:	E111      	ld         ah, @0xFFE1 <register al>
     734:	0017      	ld         al, @(0x0, y)
     735:	0100      	**prefx    0x1
     736:	EE9C      	bsr        +0xEE <UartWriteBlocking:0x824[p]>
     737:	020F      	leave      #+0x2

0x00000738 <.LFB10>:
     738:	090B      	enter      #+0x9
     739:	FA25      	st         al, @0xFFFA <(scratchpad)>
     73A:	FB21      	st         ah, @0xFFFB <(scratchpad)>
     73B:	FF23      	st         ah, @(-0x1, y)
     73C:	F92D      	st         y, @0xFFF9 <(scratchpad)>
     73D:	22E0      	bra        +0x22 <.LFB10+0x27:0x75F[p]>
     73E:	FF17      	ld         al, @(-0x1, y)
     73F:	FC34      	add        al, #-0x4
     740:	FF27      	st         al, @(-0x1, y)
     741:	0FC4      	and        al, #0xF
     742:	F825      	st         al, @0xFFF8 <(scratchpad)>
     743:	FF1B      	ld         x, @(-0x1, y)
     744:	0438      	add        x, #+0x4
     745:	FF2B      	st         x, @(-0x1, y)
     746:	FA19      	ld         x, @0xFFFA <(scratchpad)>
     747:	0012      	ld         ah, @(0x0, x)
     748:	0009      	**unsigned
     749:	F8A5      	lsr        @0xFFF8 <(scratchpad)>
     74A:	0FC0      	and        ah, #0xF
     74B:	0A80      	cmp        ah, #+0xA
     74C:	03F8      	bcc        +0x3 <.LFB10+0x17:0x74F[p]>
     74D:	3030      	add        ah, #+0x30
     74E:	02E0      	bra        +0x2 <.LFB10+0x18:0x750[p]>
     74F:	5730      	add        ah, #+0x57
     750:	F919      	ld         x, @0xFFF9 <(scratchpad)>
     751:	0022      	st         ah, @(0x0, x)
     752:	0138      	add        x, #+0x1
     753:	F929      	st         x, @0xFFF9 <(scratchpad)>
     754:	F815      	ld         al, @0xFFF8 <(scratchpad)>
     755:	FC34      	add        al, #-0x4
     756:	F825      	st         al, @0xFFF8 <(scratchpad)>
     757:	FF1B      	ld         x, @(-0x1, y)
     758:	FC38      	add        x, #-0x4
     759:	FF2B      	st         x, @(-0x1, y)
     75A:	E199      	tst        @0xFFE1 <register al>
     75B:	EBE8      	bpl        -0x15 <.LFB10+0xE:0x746[p]>
     75C:	FA15      	ld         al, @0xFFFA <(scratchpad)>
     75D:	0134      	add        al, #+0x1
     75E:	FA25      	st         al, @0xFFFA <(scratchpad)>
     75F:	FF9B      	tst        @(-0x1, y)
     760:	DEF0      	bne        -0x22 <.LFB10+0x6:0x73E[p]>
     761:	FB11      	ld         ah, @0xFFFB <(scratchpad)>
     762:	0009      	**unsigned
     763:	02A4      	lsr        #0x2
     764:	E415      	ld         al, @0xFFE4 <register uy>
     765:	0100      	**prefx    0x1
     766:	BE9C      	bsr        +0xBE <UartWriteBlocking:0x824[p]>
     767:	090F      	leave      #+0x9

0x00000768 <DebugWriteUint16>:
     768:	020B      	enter      #+0x2
     769:	0027      	st         al, @(0x0, y)
     76A:	E415      	ld         al, @0xFFE4 <register uy>
     76B:	1010      	ld         ah, #+0x10
     76C:	CC9C      	bsr        -0x34 <.LFB10:0x738[p]>
     76D:	020F      	leave      #+0x2

0x0000076E <DebugWriteUint8>:
     76E:	020B      	enter      #+0x2
     76F:	0027      	st         al, @(0x0, y)
     770:	E415      	ld         al, @0xFFE4 <register uy>
     771:	0810      	ld         ah, #+0x8
     772:	C69C      	bsr        -0x3A <.LFB10:0x738[p]>
     773:	020F      	leave      #+0x2

0x00000774 <DebugInit>:
     774:	080B      	enter      #+0x8
     775:	0527      	st         al, @(+0x5, y)
     776:	0623      	st         ah, @(+0x6, y)
     777:	3800      	**prefx    0x38
     778:	4014      	ld         al, #+0x3840
     779:	0027      	st         al, @(0x0, y)
     77A:	0214      	ld         al, #+0x2
     77B:	0127      	st         al, @(+0x1, y)
     77C:	3900      	**prefx    0x39
     77D:	8014      	ld         al, #+0x3880
     77E:	0227      	st         al, @(+0x2, y)
     77F:	0214      	ld         al, #+0x2
     780:	0327      	st         al, @(+0x3, y)
     781:	0427      	st         al, @(+0x4, y)
     782:	E015      	ld         al, @0xFFE0 <register ah>
     783:	0813      	ld         ah, @(+0x8, y)
     784:	0100      	**prefx    0x1
     785:	EA9C      	bsr        +0xEA <UartInit:0x86F[p]>
     786:	0114      	ld         al, #+0x1
     787:	0100      	**prefx    0x1
     788:	D700      	**prefx    0xD7
     789:	239C      	bsr        +0xD723 <UartEnable:0xDEAC[p]>
     78A:	069B      	tst        @(+0x6, y)
     78B:	08F4      	beq        +0x8 <DebugInit+0x1F:0x793[p]>
     78C:	0014      	ld         al, #+0x0
     78D:	0027      	st         al, @(0x0, y)
     78E:	0010      	ld         ah, #+0x0
     78F:	0517      	ld         al, @(+0x5, y)
     790:	0100      	**prefx    0x1
     791:	D700      	**prefx    0xD7
     792:	019C      	bsr        +0xD701 <UartRead:0xDE93[p]>
     793:	080F      	leave      #+0x8

0x00000794 <.LFB7>:
     794:	030B      	enter      #+0x3
     795:	0014      	ld         al, #+0x0
     796:	E025      	st         al, @0xFFE0 <register ah>
     797:	3900      	**prefx    0x39
     798:	C015      	ld         al, @0x38C0 <appProcessLmEventCalls+0x82>
     799:	DE00      	**prefx    0xDE
     79A:	9634      	add        al, #-0x226A
     79B:	FF27      	st         al, @(-0x1, y)
     79C:	FF9F      	bsr        @(-0x1, y)
     79D:	E015      	ld         al, @0xFFE0 <register ah>
     79E:	0184      	cmp        al, #+0x1
     79F:	11F0      	bne        +0x11 <.LFB7+0x1C:0x7B0[p]>
     7A0:	3900      	**prefx    0x39
     7A1:	C019      	ld         x, @0x38C0 <appProcessLmEventCalls+0x82>
     7A2:	E100      	**prefx    0xE1
     7A3:	E138      	add        x, #-0x1F1F
     7A4:	0027      	st         al, @(0x0, y)
     7A5:	0800      	**prefx    0x8
     7A6:	C714      	ld         al, #+0x7C7
     7A7:	0127      	st         al, @(+0x1, y)
     7A8:	3900      	**prefx    0x39
     7A9:	C315      	ld         al, @0x38C3 <appProcessLmEventCalls+0x85>
     7AA:	3900      	**prefx    0x39
     7AB:	C211      	ld         ah, @0x38C2 <appProcessLmEventCalls+0x84>
     7AC:	FF2B      	st         x, @(-0x1, y)
     7AD:	FF9F      	bsr        @(-0x1, y)
     7AE:	3900      	**prefx    0x39
     7AF:	C125      	st         al, @0x38C1 <appProcessLmEventCalls+0x83>
     7B0:	030F      	leave      #+0x3

0x000007B1 <.LFB8>:
     7B1:	010B      	enter      #+0x1
     7B2:	3900      	**prefx    0x39
     7B3:	C011      	ld         ah, @0x38C0 <appProcessLmEventCalls+0x82>
     7B4:	E000      	**prefx    0xE0
     7B5:	1930      	add        ah, #-0x1FE7
     7B6:	3900      	**prefx    0x39
     7B7:	C115      	ld         al, @0x38C1 <appProcessLmEventCalls+0x83>
     7B8:	FF23      	st         ah, @(-0x1, y)
     7B9:	FF9F      	bsr        @(-0x1, y)
     7BA:	0014      	ld         al, #+0x0
     7BB:	3900      	**prefx    0x39
     7BC:	C125      	st         al, @0x38C1 <appProcessLmEventCalls+0x83>
     7BD:	010F      	leave      #+0x1

0x000007BE <.LFB6>:
     7BE:	010B      	enter      #+0x1
     7BF:	F29C      	bsr        -0xE <.LFB8:0x7B1[p]>
     7C0:	D49C      	bsr        -0x2C <.LFB7:0x794[p]>
     7C1:	9500      	**prefx    0x95
     7C2:	B415      	ld         al, @0x94B4 <uart_data_out>
     7C3:	03F4      	beq        +0x3 <.LFB6+0x8:0x7C6[p]>
     7C4:	FF27      	st         al, @(-0x1, y)
     7C5:	FF9F      	bsr        @(-0x1, y)
     7C6:	010F      	leave      #+0x1

0x000007C7 <.LFB9>:
     7C7:	3900      	**prefx    0x39
     7C8:	C185      	cmp        al, @0x38C1 <appProcessLmEventCalls+0x83>
     7C9:	0FF0      	bne        +0xF <.LFB9+0x11:0x7D8[p]>
     7CA:	0014      	ld         al, #+0x0
     7CB:	3900      	**prefx    0x39
     7CC:	C125      	st         al, @0x38C1 <appProcessLmEventCalls+0x83>
     7CD:	FD00      	**prefx    0xFD
     7CE:	5315      	ld         al, @0xFD53 <___libgatt_lib_db_2651>
     7CF:	FEC4      	and        al, #0xFFFE
     7D0:	FD00      	**prefx    0xFD
     7D1:	5325      	st         al, @0xFD53 <___libgatt_lib_db_2651>
     7D2:	FD00      	**prefx    0xFD
     7D3:	5315      	ld         al, @0xFD53 <___libgatt_lib_db_2651>
     7D4:	01B4      	or         al, #+0x1
     7D5:	FD00      	**prefx    0xFD
     7D6:	5325      	st         al, @0xFD53 <___libgatt_lib_db_2651>
     7D7:	E7E0      	bra        -0x19 <.LFB6:0x7BE[p]>
     7D8:	00E2      	bra        0x0, x

0x000007D9 <UartWrite>:
     7D9:	070B      	enter      #+0x7
     7DA:	0427      	st         al, @(+0x4, y)
     7DB:	0523      	st         ah, @(+0x5, y)
     7DC:	3900      	**prefx    0x39
     7DD:	C011      	ld         ah, @0x38C0 <appProcessLmEventCalls+0x82>
     7DE:	DE00      	**prefx    0xDE
     7DF:	8230      	add        ah, #-0x227E
     7E0:	E415      	ld         al, @0xFFE4 <register uy>
     7E1:	0134      	add        al, #+0x1
     7E2:	FF23      	st         ah, @(-0x1, y)
     7E3:	FF9F      	bsr        @(-0x1, y)
     7E4:	FF10      	ld         ah, #-0x1
     7E5:	9500      	**prefx    0x95
     7E6:	B851      	sub        ah, @0x94B8 <uart_data_out+0x4>
     7E7:	E131      	add        ah, @0xFFE1 <register al>
     7E8:	03E8      	bpl        +0x3 <UartWrite+0x12:0x7EB[p]>
     7E9:	9500      	**prefx    0x95
     7EA:	B531      	add        ah, @0x94B5 <uart_data_out+0x1>
     7EB:	0583      	cmp        ah, @(+0x5, y)
     7EC:	0324      	bge        +0x3 <UartWrite+0x16:0x7EF[p]>
     7ED:	0014      	ld         al, #+0x0
     7EE:	35E0      	bra        +0x35 <___libgatt_lib_db_1063+0x23:0x823[p]>
     7EF:	3900      	**prefx    0x39
     7F0:	C011      	ld         ah, @0x38C0 <appProcessLmEventCalls+0x82>
     7F1:	B600      	**prefx    0xB6
     7F2:	9730      	add        ah, #-0x4A69
     7F3:	E415      	ld         al, @0xFFE4 <register uy>
     7F4:	0234      	add        al, #+0x2
     7F5:	FF23      	st         ah, @(-0x1, y)
     7F6:	FF9F      	bsr        @(-0x1, y)
     7F7:	3900      	**prefx    0x39
     7F8:	C019      	ld         x, @0x38C0 <appProcessLmEventCalls+0x82>
     7F9:	FD00      	**prefx    0xFD
     7FA:	4E15      	ld         al, @0xFD4E <___libgatt_lib_db_2664>
     7FB:	F825      	st         al, @0xFFF8 <(scratchpad)>
     7FC:	FD00      	**prefx    0xFD
     7FD:	4F11      	ld         ah, @0xFD4F <___libgatt_lib_db_2661>
     7FE:	B600      	**prefx    0xB6
     7FF:	A938      	add        x, #-0x4A57
     800:	0630      	add        ah, #+0x6
     801:	9500      	**prefx    0x95
     802:	B715      	ld         al, @0x94B7 <uart_data_out+0x3>
     803:	0027      	st         al, @(0x0, y)
     804:	F815      	ld         al, @0xFFF8 <(scratchpad)>
     805:	FF2B      	st         x, @(-0x1, y)
     806:	FF9F      	bsr        @(-0x1, y)
     807:	E111      	ld         ah, @0xFFE1 <register al>
     808:	9500      	**prefx    0x95
     809:	B831      	add        ah, @0x94B8 <uart_data_out+0x4>
     80A:	0517      	ld         al, @(+0x5, y)
     80B:	041B      	ld         x, @(+0x4, y)
     80C:	FD09      	bc2        
     80D:	9500      	**prefx    0x95
     80E:	B519      	ld         x, @0x94B5 <uart_data_out+0x1>
     80F:	0517      	ld         al, @(+0x5, y)
     810:	9500      	**prefx    0x95
     811:	B835      	add        al, @0x94B8 <uart_data_out+0x4>
     812:	0527      	st         al, @(+0x5, y)
     813:	0010      	ld         ah, #+0x0
     814:	0009      	**unsigned
     815:	E395      	udiv       @0xFFE3 <register uxl>
     816:	9500      	**prefx    0x95
     817:	B821      	st         ah, @0x94B8 <uart_data_out+0x4>
     818:	3900      	**prefx    0x39
     819:	C011      	ld         ah, @0x38C0 <appProcessLmEventCalls+0x82>
     81A:	B600      	**prefx    0xB6
     81B:	A030      	add        ah, #-0x4A60
     81C:	E415      	ld         al, @0xFFE4 <register uy>
     81D:	0234      	add        al, #+0x2
     81E:	FF23      	st         ah, @(-0x1, y)
     81F:	FF9F      	bsr        @(-0x1, y)
     820:	FF00      	**prefx    0xFF
     821:	739C      	bsr        -0x8D <.LFB7:0x794[p]>
     822:	0114      	ld         al, #+0x1
     823:	070F      	leave      #+0x7

0x00000824 <UartWriteBlocking>:
     824:	030B      	enter      #+0x3
     825:	0027      	st         al, @(0x0, y)
     826:	0123      	st         ah, @(+0x1, y)
     827:	0FE0      	bra        +0xF <UartWriteBlocking+0x12:0x836[p]>
     828:	3900      	**prefx    0x39
     829:	C015      	ld         al, @0x38C0 <appProcessLmEventCalls+0x82>
     82A:	E500      	**prefx    0xE5
     82B:	A734      	add        al, #-0x1B59
     82C:	FF27      	st         al, @(-0x1, y)
     82D:	FF9F      	bsr        @(-0x1, y)
     82E:	FF00      	**prefx    0xFF
     82F:	659C      	bsr        -0x9B <.LFB7:0x794[p]>
     830:	3900      	**prefx    0x39
     831:	C015      	ld         al, @0x38C0 <appProcessLmEventCalls+0x82>
     832:	E500      	**prefx    0xE5
     833:	B034      	add        al, #-0x1B50
     834:	FF27      	st         al, @(-0x1, y)
     835:	FF9F      	bsr        @(-0x1, y)
     836:	0017      	ld         al, @(0x0, y)
     837:	0113      	ld         ah, @(+0x1, y)
     838:	A19C      	bsr        -0x5F <UartWrite:0x7D9[p]>
     839:	E199      	tst        @0xFFE1 <register al>
     83A:	EEF4      	beq        -0x12 <UartWriteBlocking+0x4:0x828[p]>
     83B:	030F      	leave      #+0x3

0x0000083C <UartConfig>:
     83C:	020B      	enter      #+0x2
     83D:	0100      	**prefx    0x1
     83E:	D700      	**prefx    0xD7
     83F:	BE9C      	bsr        +0xD6BE <UartConfig_A05:0xDEFD[p]>
     840:	0014      	ld         al, #+0x0
     841:	3900      	**prefx    0x39
     842:	C225      	st         al, @0x38C2 <appProcessLmEventCalls+0x84>
     843:	1300      	**prefx    0x13
     844:	AF14      	ld         al, #+0x12AF
     845:	3900      	**prefx    0x39
     846:	C325      	st         al, @0x38C3 <appProcessLmEventCalls+0x85>
     847:	F800      	**prefx    0xF8
     848:	7E15      	ld         al, @0xF87E <___libgatt_lib_db_2919>
     849:	F825      	st         al, @0xFFF8 <(scratchpad)>
     84A:	1300      	**prefx    0x13
     84B:	C084      	cmp        al, #+0x12C0
     84C:	17F4      	beq        +0x17 <UartConfig+0x27:0x863[p]>
     84D:	0074      	nadd       al, #+0x0
     84E:	F925      	st         al, @0xFFF9 <(scratchpad)>
     84F:	8000      	**prefx    0x80
     850:	0018      	ld         x, #-0x8000
     851:	F859      	sub        x, @0xFFF8 <(scratchpad)>
     852:	0010      	ld         ah, #+0x0
     853:	0B30      	add        ah, #+0xB
     854:	F939      	add        x, @0xFFF9 <(scratchpad)>
     855:	E315      	ld         al, @0xFFE3 <register uxl>
     856:	F835      	add        al, @0xFFF8 <(scratchpad)>
     857:	03EC      	bmi        +0x3 <UartConfig+0x1E:0x85A[p]>
     858:	02F4      	beq        +0x2 <UartConfig+0x1E:0x85A[p]>
     859:	FAE0      	bra        -0x6 <UartConfig+0x17:0x853[p]>
     85A:	0009      	**unsigned
     85B:	03A4      	lsr        #0x3
     85C:	0014      	ld         al, #+0x0
     85D:	3900      	**prefx    0x39
     85E:	C225      	st         al, @0x38C2 <appProcessLmEventCalls+0x84>
     85F:	0100      	**prefx    0x1
     860:	C830      	add        ah, #+0xC8
     861:	3900      	**prefx    0x39
     862:	C321      	st         ah, @0x38C3 <appProcessLmEventCalls+0x85>
     863:	3900      	**prefx    0x39
     864:	C019      	ld         x, @0x38C0 <appProcessLmEventCalls+0x82>
     865:	E500      	**prefx    0xE5
     866:	BE38      	add        x, #-0x1B42
     867:	0800      	**prefx    0x8
     868:	BE14      	ld         al, #+0x7BE
     869:	0027      	st         al, @(0x0, y)
     86A:	0714      	ld         al, #+0x7
     86B:	0110      	ld         ah, #+0x1
     86C:	FF2B      	st         x, @(-0x1, y)
     86D:	FF9F      	bsr        @(-0x1, y)
     86E:	020F      	leave      #+0x2

0x0000086F <UartInit>:
     86F:	080B      	enter      #+0x8
     870:	0527      	st         al, @(+0x5, y)
     871:	0623      	st         ah, @(+0x6, y)
     872:	FF00      	**prefx    0xFF
     873:	3E9C      	bsr        -0xC2 <.LFB8:0x7B1[p]>
     874:	0817      	ld         al, @(+0x8, y)
     875:	0027      	st         al, @(0x0, y)
     876:	0917      	ld         al, @(+0x9, y)
     877:	0127      	st         al, @(+0x1, y)
     878:	0A17      	ld         al, @(+0xA, y)
     879:	0227      	st         al, @(+0x2, y)
     87A:	0B17      	ld         al, @(+0xB, y)
     87B:	0327      	st         al, @(+0x3, y)
     87C:	0C17      	ld         al, @(+0xC, y)
     87D:	0427      	st         al, @(+0x4, y)
     87E:	0517      	ld         al, @(+0x5, y)
     87F:	0613      	ld         ah, @(+0x6, y)
     880:	0100      	**prefx    0x1
     881:	D700      	**prefx    0xD7
     882:	BC9C      	bsr        +0xD6BC <UartInit_A05:0xDF3E[p]>
     883:	0014      	ld         al, #+0x0
     884:	0010      	ld         ah, #+0x0
     885:	B79C      	bsr        -0x49 <UartConfig:0x83C[p]>
     886:	080F      	leave      #+0x8

0x00000887 <ram_app_init>:
     887:	020B      	enter      #+0x2
     888:	0100      	**prefx    0x1
     889:	CC14      	ld         al, #+0xCC
     88A:	0027      	st         al, @(0x0, y)
     88B:	3800      	**prefx    0x38
     88C:	1E14      	ld         al, #+0x381E
     88D:	0010      	ld         ah, #+0x0
     88E:	0100      	**prefx    0x1
     88F:	8400      	**prefx    0x84
     890:	7D9C      	bsr        +0x847D <MemSet:0x8D0D[p]>
     891:	0400      	**prefx    0x4
     892:	8A14      	ld         al, #+0x38A
     893:	0100      	**prefx    0x1
     894:	DF00      	**prefx    0xDF
     895:	F49C      	bsr        +0xDEF4 <___libgatt_lib_db_4323:0xE789[p]>
     896:	0600      	**prefx    0x6
     897:	8D14      	ld         al, #+0x58D
     898:	0100      	**prefx    0x1
     899:	DF00      	**prefx    0xDF
     89A:	F29C      	bsr        +0xDEF2 <___libgatt_lib_db_4322:0xE78C[p]>
     89B:	0400      	**prefx    0x4
     89C:	8B14      	ld         al, #+0x38B
     89D:	0100      	**prefx    0x1
     89E:	DF00      	**prefx    0xDF
     89F:	F09C      	bsr        +0xDEF0 <___libgatt_lib_db_4324:0xE78F[p]>
     8A0:	0900      	**prefx    0x9
     8A1:	BA14      	ld         al, #+0x8BA
     8A2:	0100      	**prefx    0x1
     8A3:	E100      	**prefx    0xE1
     8A4:	D29C      	bsr        +0xE0D2 <___libgatt_lib_db_4366:0xE976[p]>
     8A5:	0100      	**prefx    0x1
     8A6:	F000      	**prefx    0xF0
     8A7:	EC9C      	bsr        +0xEFEC <IdGetRomBuild:0xF893[p]>
     8A8:	0200      	**prefx    0x2
     8A9:	FB84      	cmp        al, #+0x1FB
     8AA:	05F4      	beq        +0x5 <ram_app_init+0x28:0x8AF[p]>
     8AB:	1D14      	ld         al, #+0x1D
     8AC:	0100      	**prefx    0x1
     8AD:	E000      	**prefx    0xE0
     8AE:	6C9C      	bsr        +0xE06C <fault:0xE91A[p]>
     8AF:	3800      	**prefx    0x38
     8B0:	D515      	ld         al, @0x37D5 <ram_build_identifier_integer>
     8B1:	0100      	**prefx    0x1
     8B2:	F000      	**prefx    0xF0
     8B3:	DD9C      	bsr        +0xEFDD <___libgatt_lib_db_4492:0xF890[p]>
     8B4:	0600      	**prefx    0x6
     8B5:	7814      	ld         al, #+0x678
     8B6:	0100      	**prefx    0x1
     8B7:	8C00      	**prefx    0x8C
     8B8:	029C      	bsr        +0x8C02 <installAppProcessLmEvent:0x94BA[p]>
     8B9:	020F      	leave      #+0x2

0x000008BA <___libgatt_lib_db_4364>:
     8BA:	1114      	ld         al, #+0x11
     8BB:	F700      	**prefx    0xF7
     8BC:	F525      	st         al, @0xF6F5 <___libgatt_lib_db_1861>
     8BD:	5100      	**prefx    0x51
     8BE:	D714      	ld         al, #+0x50D7
     8BF:	F600      	**prefx    0xF6
     8C0:	3525      	st         al, @0xF635 <___libgatt_lib_db_1862>
     8C1:	00E2      	bra        0x0, x

0x000008C2 <IdGetLlVerBtle>:
     8C2:	A000      	**prefx    0xA0
     8C3:	CE15      	ld         al, @0x9FCE <DATA_CSTORE_START+0x4A>
     8C4:	00E2      	bra        0x0, x

0x000008C5 <___libgatt_lib_db_4554>:
     8C5:	0900      	**prefx    0x9
     8C6:	CC14      	ld         al, #+0x8CC
     8C7:	0900      	**prefx    0x9
     8C8:	1F10      	ld         ah, #+0x91F
     8C9:	0100      	**prefx    0x1
     8CA:	AD00      	**prefx    0xAD
     8CB:	0FE0      	bra        +0xAD0F <___libgatt_lib_db_3959:0xB5DA[p]>

0x000008CC <.LFB6>:
     8CC:	030B      	enter      #+0x3
     8CD:	0027      	st         al, @(0x0, y)
     8CE:	0123      	st         ah, @(+0x1, y)
     8CF:	3E84      	cmp        al, #+0x3E
     8D0:	1EF4      	beq        +0x1E <.LFB6+0x22:0x8EE[p]>
     8D1:	3F84      	cmp        al, #+0x3F
     8D2:	04F8      	bcc        +0x4 <.LFB6+0xA:0x8D6[p]>
     8D3:	0584      	cmp        al, #+0x5
     8D4:	24F0      	bne        +0x24 <.LFB6+0x2C:0x8F8[p]>
     8D5:	1CE0      	bra        +0x1C <.LFB6+0x25:0x8F1[p]>
     8D6:	0017      	ld         al, @(0x0, y)
     8D7:	4284      	cmp        al, #+0x42
     8D8:	05F4      	beq        +0x5 <.LFB6+0x11:0x8DD[p]>
     8D9:	0B00      	**prefx    0xB
     8DA:	B684      	cmp        al, #+0xAB6
     8DB:	1DF0      	bne        +0x1D <.LFB6+0x2C:0x8F8[p]>
     8DC:	07E0      	bra        +0x7 <.LFB6+0x17:0x8E3[p]>
     8DD:	011B      	ld         x, @(+0x1, y)
     8DE:	0138      	add        x, #+0x1
     8DF:	E315      	ld         al, @0xFFE3 <register uxl>
     8E0:	FA00      	**prefx    0xFA
     8E1:	E29C      	bsr        -0x61E <___libgatt_lib_db_4590:0x2C3[p]>
     8E2:	0AE0      	bra        +0xA <.LFB6+0x20:0x8EC[p]>
     8E3:	011B      	ld         x, @(+0x1, y)
     8E4:	0116      	ld         al, @(+0x1, x)
     8E5:	0100      	**prefx    0x1
     8E6:	8900      	**prefx    0x89
     8E7:	509C      	bsr        +0x8950 <___libgatt_lib_db_40:0x9237[p]>
     8E8:	011B      	ld         x, @(+0x1, y)
     8E9:	0126      	st         al, @(+0x1, x)
     8EA:	FF84      	cmp        al, #-0x1
     8EB:	0DF0      	bne        +0xD <.LFB6+0x2C:0x8F8[p]>
     8EC:	0114      	ld         al, #+0x1
     8ED:	10E0      	bra        +0x10 <.LFB6+0x31:0x8FD[p]>
     8EE:	FE00      	**prefx    0xFE
     8EF:	A19C      	bsr        -0x25F <___libgatt_lib_db_4563:0x690[p]>
     8F0:	08E0      	bra        +0x8 <.LFB6+0x2C:0x8F8[p]>
     8F1:	0014      	ld         al, #+0x0
     8F2:	3900      	**prefx    0x39
     8F3:	C725      	st         al, @0x38C7 <patch_rx_timing_report>
     8F4:	3900      	**prefx    0x39
     8F5:	C825      	st         al, @0x38C8 <patch_pending_mode>
     8F6:	3900      	**prefx    0x39
     8F7:	C625      	st         al, @0x38C6 <patch_pending>
     8F8:	0017      	ld         al, @(0x0, y)
     8F9:	0113      	ld         ah, @(+0x1, y)
     8FA:	0100      	**prefx    0x1
     8FB:	8A00      	**prefx    0x8A
     8FC:	6C9C      	bsr        +0x8A6C <___libgatt_lib_db_73:0x9368[p]>
     8FD:	030F      	leave      #+0x3

0x000008FE <___libgatt_lib_db_4568>:
     8FE:	010B      	enter      #+0x1
     8FF:	9300      	**prefx    0x93
     900:	6515      	ld         al, @0x9365 <___libgatt_lib_db_18>
     901:	0384      	cmp        al, #+0x3
     902:	0BF0      	bne        +0xB <___libgatt_lib_db_4568+0xF:0x90D[p]>
     903:	3900      	**prefx    0x39
     904:	C415      	ld         al, @0x38C4 <appProcessLmEventCalls+0x86>
     905:	CD00      	**prefx    0xCD
     906:	6734      	add        al, #-0x3299
     907:	FF27      	st         al, @(-0x1, y)
     908:	FF9F      	bsr        @(-0x1, y)
     909:	E199      	tst        @0xFFE1 <register al>
     90A:	03F4      	beq        +0x3 <___libgatt_lib_db_4568+0xF:0x90D[p]>
     90B:	0C14      	ld         al, #+0xC
     90C:	080F      	leave      #+0x8
     90D:	010F      	leave      #+0x1

0x0000090E <___libgatt_lib_db_4569>:
     90E:	010B      	enter      #+0x1
     90F:	0A17      	ld         al, @(+0xA, y)
     910:	0FC4      	and        al, #0xF
     911:	0584      	cmp        al, #+0x5
     912:	09F0      	bne        +0x9 <___libgatt_lib_db_4569+0xD:0x91B[p]>
     913:	AF9C      	bsr        -0x51 <IdGetLlVerBtle:0x8C2[p]>
     914:	0684      	cmp        al, #+0x6
     915:	032C      	bcz        +0x3 <___libgatt_lib_db_4569+0xA:0x918[p]>
     916:	0114      	ld         al, #+0x1
     917:	05E0      	bra        +0x5 <___libgatt_lib_db_4569+0xE:0x91C[p]>
     918:	1114      	ld         al, #+0x11
     919:	0C0F      	leave      #+0xC
     91A:	04E0      	bra        +0x4 <___libgatt_lib_db_4569+0x10:0x91E[p]>
     91B:	0014      	ld         al, #+0x0
     91C:	3900      	**prefx    0x39
     91D:	E625      	st         al, @0x38E6 <enable_lowduty_directed_adv>
     91E:	010F      	leave      #+0x1

0x0000091F <___libgatt_lib_db_4573>:
     91F:	030B      	enter      #+0x3
     920:	F925      	st         al, @0xFFF9 <(scratchpad)>
     921:	F821      	st         ah, @0xFFF8 <(scratchpad)>
     922:	0313      	ld         ah, @(+0x3, y)
     923:	0417      	ld         al, @(+0x4, y)
     924:	FA25      	st         al, @0xFFFA <(scratchpad)>
     925:	16F4      	beq        +0x16 <L0+0x9:0x93B[p]>
     926:	0380      	cmp        ah, #+0x3
     927:	142C      	bcz        +0x14 <L0+0x9:0x93B[p]>
     928:	1C80      	cmp        ah, #+0x1C
     929:	12F8      	bcc        +0x12 <L0+0x9:0x93B[p]>
     92A:	E015      	ld         al, @0xFFE0 <register ah>
     92B:	FC34      	add        al, #-0x4
     92C:	F819      	ld         x, @0xFFF8 <(scratchpad)>
     92D:	0086      	cmp        al, @(0x0, x)
     92E:	0DF0      	bne        +0xD <L0+0x9:0x93B[p]>
     92F:	3900      	**prefx    0x39
     930:	C519      	ld         x, @0x38C5 <appProcessLmEventCalls+0x87>
     931:	9500      	**prefx    0x95
     932:	6B38      	add        x, #-0x6A95
     933:	0023      	st         ah, @(0x0, y)
     934:	FA15      	ld         al, @0xFFFA <(scratchpad)>
     935:	0127      	st         al, @(+0x1, y)
     936:	F915      	ld         al, @0xFFF9 <(scratchpad)>
     937:	F811      	ld         ah, @0xFFF8 <(scratchpad)>
     938:	FF2B      	st         x, @(-0x1, y)
     939:	FF9F      	bsr        @(-0x1, y)
     93A:	02E0      	bra        +0x2 <L0+0xA:0x93C[p]>
     93B:	0114      	ld         al, #+0x1
     93C:	030F      	leave      #+0x3

0x0000093D <___libgatt_lib_db_4572>:
     93D:	010B      	enter      #+0x1
     93E:	0117      	ld         al, @(+0x1, y)
     93F:	0213      	ld         ah, @(+0x2, y)
     940:	0684      	cmp        al, #+0x6
     941:	07F0      	bne        +0x7 <___libgatt_lib_db_4572+0xB:0x948[p]>
     942:	E015      	ld         al, @0xFFE0 <register ah>
     943:	9400      	**prefx    0x94
     944:	7410      	ld         ah, #-0x6B8C
     945:	FA00      	**prefx    0xFA
     946:	2D9C      	bsr        -0x5D3 <___libgatt_lib_db_4604:0x373[p]>
     947:	040F      	leave      #+0x4
     948:	010F      	leave      #+0x1

0x00000949 <___libgatt_lib_db_4576>:
     949:	0017      	ld         al, @(0x0, y)
     94A:	0E84      	cmp        al, #+0xE
     94B:	04F4      	beq        +0x4 <___libgatt_lib_db_4576+0x6:0x94F[p]>
     94C:	1884      	cmp        al, #+0x18
     94D:	09F0      	bne        +0x9 <___libgatt_lib_db_4576+0xD:0x956[p]>
     94E:	05E0      	bra        +0x5 <___libgatt_lib_db_4576+0xA:0x953[p]>
     94F:	0A00      	**prefx    0xA
     950:	5614      	ld         al, #+0xA56
     951:	0127      	st         al, @(+0x1, y)
     952:	00E2      	bra        0x0, x
     953:	0900      	**prefx    0x9
     954:	5714      	ld         al, #+0x957
     955:	0127      	st         al, @(+0x1, y)
     956:	00E2      	bra        0x0, x

0x00000957 <.LFB4>:
     957:	0F0B      	enter      #+0xF
     958:	0C27      	st         al, @(+0xC, y)
     959:	0D23      	st         ah, @(+0xD, y)
     95A:	0014      	ld         al, #+0x0
     95B:	0427      	st         al, @(+0x4, y)
     95C:	FF18      	ld         x, #-0x1
     95D:	052B      	st         x, @(+0x5, y)
     95E:	E099      	tst        @0xFFE0 <register ah>
     95F:	07F4      	beq        +0x7 <.LFB4+0xF:0x966[p]>
     960:	0C1B      	ld         x, @(+0xC, y)
     961:	0100      	**prefx    0x1
     962:	9616      	ld         al, @(+0x96, x)
     963:	0134      	add        al, #+0x1
     964:	0100      	**prefx    0x1
     965:	9726      	st         al, @(+0x97, x)
     966:	0C17      	ld         al, @(+0xC, y)
     967:	0100      	**prefx    0x1
     968:	9734      	add        al, #+0x97
     969:	0100      	**prefx    0x1
     96A:	8400      	**prefx    0x84
     96B:	3C9C      	bsr        +0x843C <BufReadUint8:0x8DA7[p]>
     96C:	E199      	tst        @0xFFE1 <register al>
     96D:	05F4      	beq        +0x5 <.LFB4+0x1B:0x972[p]>
     96E:	0184      	cmp        al, #+0x1
     96F:	0100      	**prefx    0x1
     970:	E2F0      	bne        +0xE2 <.LFB4+0xFB:0xA52[p]>
     971:	05E0      	bra        +0x5 <.LFB4+0x1F:0x976[p]>
     972:	0014      	ld         al, #+0x0
     973:	0727      	st         al, @(+0x7, y)
     974:	0100      	**prefx    0x1
     975:	C2E0      	bra        +0xC2 <.LFB4+0xE0:0xA37[p]>
     976:	0D9B      	tst        @(+0xD, y)
     977:	09F4      	beq        +0x9 <.LFB4+0x29:0x980[p]>
     978:	0D1B      	ld         x, @(+0xD, y)
     979:	041A      	ld         x, @(+0x4, x)
     97A:	072B      	st         x, @(+0x7, y)
     97B:	05F4      	beq        +0x5 <.LFB4+0x29:0x980[p]>
     97C:	0A00      	**prefx    0xA
     97D:	4388      	cmp        x, #+0xA43
     97E:	0100      	**prefx    0x1
     97F:	C8F0      	bne        +0xC8 <.LFB4+0xF0:0xA47[p]>
     980:	0C17      	ld         al, @(+0xC, y)
     981:	0434      	add        al, #+0x4
     982:	0627      	st         al, @(+0x6, y)
     983:	0927      	st         al, @(+0x9, y)
     984:	0018      	ld         x, #+0x0
     985:	072B      	st         x, @(+0x7, y)
     986:	082B      	st         x, @(+0x8, y)
     987:	62E0      	bra        +0x62 <.LFB4+0x92:0x9E9[p]>
     988:	091B      	ld         x, @(+0x9, y)
     989:	0016      	ld         al, @(0x0, x)
     98A:	0587      	cmp        al, @(+0x5, y)
     98B:	03FC      	bcs        +0x3 <.LFB4+0x37:0x98E[p]>
     98C:	049B      	tst        @(+0x4, y)
     98D:	07F0      	bne        +0x7 <.LFB4+0x3D:0x994[p]>
     98E:	E411      	ld         ah, @0xFFE4 <register uy>
     98F:	0530      	add        ah, #+0x5
     990:	0100      	**prefx    0x1
     991:	A400      	**prefx    0xA4
     992:	A19C      	bsr        +0xA3A1 <___libgatt_lib_db_273:0xAD33[p]>
     993:	0427      	st         al, @(+0x4, y)
     994:	0917      	ld         al, @(+0x9, y)
     995:	0334      	add        al, #+0x3
     996:	0B27      	st         al, @(+0xB, y)
     997:	41E0      	bra        +0x41 <.LFB4+0x81:0x9D8[p]>
     998:	E181      	cmp        ah, @0xFFE1 <register al>
     999:	38F0      	bne        +0x38 <.LFB4+0x7A:0x9D1[p]>
     99A:	0D9B      	tst        @(+0xD, y)
     99B:	28F0      	bne        +0x28 <.LFB4+0x6C:0x9C3[p]>
     99C:	F819      	ld         x, @0xFFF8 <(scratchpad)>
     99D:	0012      	ld         ah, @(0x0, x)
     99E:	0009      	**unsigned
     99F:	08A4      	lsr        #0x8
     9A0:	04C0      	and        ah, #0x4
     9A1:	30F4      	beq        +0x30 <.LFB4+0x7A:0x9D1[p]>
     9A2:	091B      	ld         x, @(+0x9, y)
     9A3:	0216      	ld         al, @(+0x2, x)
     9A4:	0DF4      	beq        +0xD <.LFB4+0x5A:0x9B1[p]>
     9A5:	0027      	st         al, @(0x0, y)
     9A6:	091B      	ld         x, @(+0x9, y)
     9A7:	011A      	ld         x, @(+0x1, x)
     9A8:	012B      	st         x, @(+0x1, y)
     9A9:	9700      	**prefx    0x97
     9AA:	C014      	ld         al, #-0x6940
     9AB:	0B13      	ld         ah, @(+0xB, y)
     9AC:	0100      	**prefx    0x1
     9AD:	A100      	**prefx    0xA1
     9AE:	DD9C      	bsr        +0xA0DD <___libgatt_lib_db_288:0xAA8B[p]>
     9AF:	9700      	**prefx    0x97
     9B0:	C014      	ld         al, #-0x6940
     9B1:	0218      	ld         x, #+0x2
     9B2:	002B      	st         x, @(0x0, y)
     9B3:	091B      	ld         x, @(+0x9, y)
     9B4:	011A      	ld         x, @(+0x1, x)
     9B5:	012B      	st         x, @(+0x1, y)
     9B6:	091B      	ld         x, @(+0x9, y)
     9B7:	021A      	ld         x, @(+0x2, x)
     9B8:	022B      	st         x, @(+0x2, y)
     9B9:	0327      	st         al, @(+0x3, y)
     9BA:	0C1B      	ld         x, @(+0xC, y)
     9BB:	0016      	ld         al, @(0x0, x)
     9BC:	0513      	ld         ah, @(+0x5, y)
     9BD:	0100      	**prefx    0x1
     9BE:	9900      	**prefx    0x99
     9BF:	099C      	bsr        +0x9909 <___libgatt_lib_db_226:0xA2C8[p]>
     9C0:	0114      	ld         al, #+0x1
     9C1:	0827      	st         al, @(+0x8, y)
     9C2:	0FE0      	bra        +0xF <.LFB4+0x7A:0x9D1[p]>
     9C3:	0D1B      	ld         x, @(+0xD, y)
     9C4:	041A      	ld         x, @(+0x4, x)
     9C5:	072B      	st         x, @(+0x7, y)
     9C6:	0A00      	**prefx    0xA
     9C7:	4388      	cmp        x, #+0xA43
     9C8:	09F0      	bne        +0x9 <.LFB4+0x7A:0x9D1[p]>
     9C9:	E415      	ld         al, @0xFFE4 <register uy>
     9CA:	0434      	add        al, #+0x4
     9CB:	0913      	ld         ah, @(+0x9, y)
     9CC:	0100      	**prefx    0x1
     9CD:	A200      	**prefx    0xA2
     9CE:	189C      	bsr        +0xA218 <___libgatt_lib_db_271:0xABE6[p]>
     9CF:	0727      	st         al, @(+0x7, y)
     9D0:	13F0      	bne        +0x13 <.LFB4+0x8C:0x9E3[p]>
     9D1:	0417      	ld         al, @(+0x4, y)
     9D2:	E411      	ld         ah, @0xFFE4 <register uy>
     9D3:	0530      	add        ah, #+0x5
     9D4:	0100      	**prefx    0x1
     9D5:	A300      	**prefx    0xA3
     9D6:	9A9C      	bsr        +0xA29A <___libgatt_lib_db_279:0xAC70[p]>
     9D7:	0427      	st         al, @(+0x4, y)
     9D8:	0417      	ld         al, @(+0x4, y)
     9D9:	F825      	st         al, @0xFFF8 <(scratchpad)>
     9DA:	09F4      	beq        +0x9 <.LFB4+0x8C:0x9E3[p]>
     9DB:	0513      	ld         ah, @(+0x5, y)
     9DC:	091B      	ld         x, @(+0x9, y)
     9DD:	0016      	ld         al, @(0x0, x)
     9DE:	E181      	cmp        ah, @0xFFE1 <register al>
     9DF:	022C      	bcz        +0x2 <.LFB4+0x8A:0x9E1[p]>
     9E0:	03E0      	bra        +0x3 <.LFB4+0x8C:0x9E3[p]>
     9E1:	079B      	tst        @(+0x7, y)
     9E2:	B6F4      	beq        -0x4A <.LFB4+0x41:0x998[p]>
     9E3:	0C17      	ld         al, @(+0xC, y)
     9E4:	0913      	ld         ah, @(+0x9, y)
     9E5:	0100      	**prefx    0x1
     9E6:	A100      	**prefx    0xA1
     9E7:	489C      	bsr        +0xA148 <___libgatt_lib_db_291:0xAB2F[p]>
     9E8:	0927      	st         al, @(+0x9, y)
     9E9:	099B      	tst        @(+0x9, y)
     9EA:	03F4      	beq        +0x3 <.LFB4+0x96:0x9ED[p]>
     9EB:	079B      	tst        @(+0x7, y)
     9EC:	9CF4      	beq        -0x64 <.LFB4+0x31:0x988[p]>
     9ED:	089B      	tst        @(+0x8, y)
     9EE:	10F4      	beq        +0x10 <.LFB4+0xA7:0x9FE[p]>
     9EF:	4000      	**prefx    0x40
     9F0:	0014      	ld         al, #+0x4000
     9F1:	0027      	st         al, @(0x0, y)
     9F2:	0018      	ld         x, #+0x0
     9F3:	012B      	st         x, @(+0x1, y)
     9F4:	022B      	st         x, @(+0x2, y)
     9F5:	032B      	st         x, @(+0x3, y)
     9F6:	0C1B      	ld         x, @(+0xC, y)
     9F7:	0016      	ld         al, @(0x0, x)
     9F8:	0010      	ld         ah, #+0x0
     9F9:	0100      	**prefx    0x1
     9FA:	9900      	**prefx    0x99
     9FB:	CD9C      	bsr        +0x98CD <___libgatt_lib_db_226:0xA2C8[p]>
     9FC:	0014      	ld         al, #+0x0
     9FD:	54E0      	bra        +0x54 <.LFB4+0xFA:0xA51[p]>
     9FE:	0D9B      	tst        @(+0xD, y)
     9FF:	38F0      	bne        +0x38 <.LFB4+0xE0:0xA37[p]>
     A00:	FF14      	ld         al, #-0x1
     A01:	0527      	st         al, @(+0x5, y)
     A02:	0018      	ld         x, #+0x0
     A03:	042B      	st         x, @(+0x4, y)
     A04:	2FE0      	bra        +0x2F <.LFB4+0xDC:0xA33[p]>
     A05:	061B      	ld         x, @(+0x6, y)
     A06:	0016      	ld         al, @(0x0, x)
     A07:	0587      	cmp        al, @(+0x5, y)
     A08:	03FC      	bcs        +0x3 <.LFB4+0xB4:0xA0B[p]>
     A09:	049B      	tst        @(+0x4, y)
     A0A:	18F0      	bne        +0x18 <.LFB4+0xCB:0xA22[p]>
     A0B:	E411      	ld         ah, @0xFFE4 <register uy>
     A0C:	0530      	add        ah, #+0x5
     A0D:	0100      	**prefx    0x1
     A0E:	A300      	**prefx    0xA3
     A0F:	249C      	bsr        +0xA324 <___libgatt_lib_db_273:0xAD33[p]>
     A10:	11E0      	bra        +0x11 <.LFB4+0xCA:0xA21[p]>
     A11:	E181      	cmp        ah, @0xFFE1 <register al>
     A12:	09F0      	bne        +0x9 <.LFB4+0xC4:0xA1B[p]>
     A13:	E415      	ld         al, @0xFFE4 <register uy>
     A14:	0434      	add        al, #+0x4
     A15:	0613      	ld         ah, @(+0x6, y)
     A16:	0100      	**prefx    0x1
     A17:	A200      	**prefx    0xA2
     A18:	CE9C      	bsr        +0xA1CE <___libgatt_lib_db_271:0xABE6[p]>
     A19:	0A27      	st         al, @(+0xA, y)
     A1A:	11F0      	bne        +0x11 <.LFB4+0xD4:0xA2B[p]>
     A1B:	0417      	ld         al, @(+0x4, y)
     A1C:	E411      	ld         ah, @0xFFE4 <register uy>
     A1D:	0530      	add        ah, #+0x5
     A1E:	0100      	**prefx    0x1
     A1F:	A200      	**prefx    0xA2
     A20:	509C      	bsr        +0xA250 <___libgatt_lib_db_279:0xAC70[p]>
     A21:	0427      	st         al, @(+0x4, y)
     A22:	049B      	tst        @(+0x4, y)
     A23:	06F4      	beq        +0x6 <.LFB4+0xD2:0xA29[p]>
     A24:	0513      	ld         ah, @(+0x5, y)
     A25:	061B      	ld         x, @(+0x6, y)
     A26:	0016      	ld         al, @(0x0, x)
     A27:	E181      	cmp        ah, @0xFFE1 <register al>
     A28:	E92C      	bcz        -0x17 <.LFB4+0xBA:0xA11[p]>
     A29:	0014      	ld         al, #+0x0
     A2A:	0A27      	st         al, @(+0xA, y)
     A2B:	0C17      	ld         al, @(+0xC, y)
     A2C:	0613      	ld         ah, @(+0x6, y)
     A2D:	0100      	**prefx    0x1
     A2E:	A100      	**prefx    0xA1
     A2F:	009C      	bsr        +0xA100 <___libgatt_lib_db_291:0xAB2F[p]>
     A30:	0627      	st         al, @(+0x6, y)
     A31:	0A1B      	ld         x, @(+0xA, y)
     A32:	072B      	st         x, @(+0x7, y)
     A33:	069B      	tst        @(+0x6, y)
     A34:	03F4      	beq        +0x3 <.LFB4+0xE0:0xA37[p]>
     A35:	079B      	tst        @(+0x7, y)
     A36:	CFF4      	beq        -0x31 <.LFB4+0xAE:0xA05[p]>
     A37:	0C17      	ld         al, @(+0xC, y)
     A38:	0100      	**prefx    0x1
     A39:	A100      	**prefx    0xA1
     A3A:	EF9C      	bsr        +0xA0EF <___libgatt_lib_db_290:0xAB29[p]>
     A3B:	079B      	tst        @(+0x7, y)
     A3C:	0BF0      	bne        +0xB <.LFB4+0xF0:0xA47[p]>
     A3D:	0C17      	ld         al, @(+0xC, y)
     A3E:	1910      	ld         ah, #+0x19
     A3F:	0100      	**prefx    0x1
     A40:	9200      	**prefx    0x92
     A41:	CB9C      	bsr        +0x91CB <___libgatt_lib_db_164:0x9C0C[p]>
     A42:	0C17      	ld         al, @(+0xC, y)
     A43:	0100      	**prefx    0x1
     A44:	9200      	**prefx    0x92
     A45:	829C      	bsr        +0x9182 <___libgatt_lib_db_165:0x9BC7[p]>
     A46:	0AE0      	bra        +0xA <.LFB4+0xF9:0xA50[p]>
     A47:	0517      	ld         al, @(+0x5, y)
     A48:	0027      	st         al, @(0x0, y)
     A49:	071B      	ld         x, @(+0x7, y)
     A4A:	012B      	st         x, @(+0x1, y)
     A4B:	0C17      	ld         al, @(+0xC, y)
     A4C:	1810      	ld         ah, #+0x18
     A4D:	0100      	**prefx    0x1
     A4E:	8E00      	**prefx    0x8E
     A4F:	3C9C      	bsr        +0x8E3C <___libgatt_lib_db_143:0x988B[p]>
     A50:	0114      	ld         al, #+0x1
     A51:	0F0F      	leave      #+0xF
     A52:	0A00      	**prefx    0xA
     A53:	0414      	ld         al, #+0xA04
     A54:	0727      	st         al, @(+0x7, y)
     A55:	F2E0      	bra        -0xE <.LFB4+0xF0:0xA47[p]>

0x00000A56 <.LFB3>:
     A56:	0E0B      	enter      #+0xE
     A57:	0B27      	st         al, @(+0xB, y)
     A58:	0C23      	st         ah, @(+0xC, y)
     A59:	FF14      	ld         al, #-0x1
     A5A:	0427      	st         al, @(+0x4, y)
     A5B:	0B1B      	ld         x, @(+0xB, y)
     A5C:	0100      	**prefx    0x1
     A5D:	9616      	ld         al, @(+0x96, x)
     A5E:	0100      	**prefx    0x1
     A5F:	9756      	sub        al, @(+0x97, x)
     A60:	0100      	**prefx    0x1
     A61:	9836      	add        al, @(+0x98, x)
     A62:	0727      	st         al, @(+0x7, y)
     A63:	01C4      	and        al, #0x1
     A64:	06F4      	beq        +0x6 <.LFB3+0x14:0xA6A[p]>
     A65:	0018      	ld         x, #+0x0
     A66:	002B      	st         x, @(0x0, y)
     A67:	0A00      	**prefx    0xA
     A68:	0414      	ld         al, #+0xA04
     A69:	4EE0      	bra        +0x4E <.LFB3+0x61:0xAB7[p]>
     A6A:	0B17      	ld         al, @(+0xB, y)
     A6B:	0F10      	ld         ah, #+0xF
     A6C:	0100      	**prefx    0x1
     A6D:	9200      	**prefx    0x92
     A6E:	9E9C      	bsr        +0x919E <___libgatt_lib_db_164:0x9C0C[p]>
     A6F:	0627      	st         al, @(+0x6, y)
     A70:	0C9B      	tst        @(+0xC, y)
     A71:	0100      	**prefx    0x1
     A72:	8CF4      	beq        +0x8C <.LFB3+0xA8:0xAFE[p]>
     A73:	0C1B      	ld         x, @(+0xC, y)
     A74:	0416      	ld         al, @(+0x4, x)
     A75:	0CF0      	bne        +0xC <.LFB3+0x2B:0xA81[p]>
     A76:	0612      	ld         ah, @(+0x6, x)
     A77:	0516      	ld         al, @(+0x5, x)
     A78:	0027      	st         al, @(0x0, y)
     A79:	0B17      	ld         al, @(+0xB, y)
     A7A:	0100      	**prefx    0x1
     A7B:	9100      	**prefx    0x91
     A7C:	729C      	bsr        +0x9172 <___libgatt_lib_db_166:0x9BEE[p]>
     A7D:	0627      	st         al, @(+0x6, y)
     A7E:	0018      	ld         x, #+0x0
     A7F:	0C2B      	st         x, @(+0xC, y)
     A80:	7EE0      	bra        +0x7E <.LFB3+0xA8:0xAFE[p]>
     A81:	0A00      	**prefx    0xA
     A82:	4384      	cmp        al, #+0xA43
     A83:	0BF0      	bne        +0xB <.LFB3+0x38:0xA8E[p]>
     A84:	0B1B      	ld         x, @(+0xB, y)
     A85:	0100      	**prefx    0x1
     A86:	9716      	ld         al, @(+0x97, x)
     A87:	FE34      	add        al, #-0x2
     A88:	0100      	**prefx    0x1
     A89:	9726      	st         al, @(+0x97, x)
     A8A:	0717      	ld         al, @(+0x7, y)
     A8B:	0234      	add        al, #+0x2
     A8C:	0727      	st         al, @(+0x7, y)
     A8D:	71E0      	bra        +0x71 <.LFB3+0xA8:0xAFE[p]>
     A8E:	0C1B      	ld         x, @(+0xC, y)
     A8F:	031A      	ld         x, @(+0x3, x)
     A90:	26E0      	bra        +0x26 <.LFB3+0x60:0xAB6[p]>
     A91:	0A17      	ld         al, @(+0xA, y)
     A92:	0100      	**prefx    0x1
     A93:	8300      	**prefx    0x83
     A94:	1F9C      	bsr        +0x831F <BufReadUint16:0x8DB3[p]>
     A95:	0827      	st         al, @(+0x8, y)
     A96:	0487      	cmp        al, @(+0x4, y)
     A97:	03FC      	bcs        +0x3 <.LFB3+0x44:0xA9A[p]>
     A98:	059B      	tst        @(+0x5, y)
     A99:	4DF0      	bne        +0x4D <.LFB3+0x90:0xAE6[p]>
     A9A:	0817      	ld         al, @(+0x8, y)
     A9B:	E411      	ld         ah, @0xFFE4 <register uy>
     A9C:	0430      	add        ah, #+0x4
     A9D:	0100      	**prefx    0x1
     A9E:	A300      	**prefx    0xA3
     A9F:	949C      	bsr        +0xA294 <___libgatt_lib_db_273:0xAD33[p]>
     AA0:	45E0      	bra        +0x45 <.LFB3+0x8F:0xAE5[p]>
     AA1:	0887      	cmp        al, @(+0x8, y)
     AA2:	3DF0      	bne        +0x3D <.LFB3+0x89:0xADF[p]>
     AA3:	0517      	ld         al, @(+0x5, y)
     AA4:	0100      	**prefx    0x1
     AA5:	A200      	**prefx    0xA2
     AA6:	359C      	bsr        +0xA235 <___libgatt_lib_db_280:0xACDB[p]>
     AA7:	02C4      	and        al, #0x2
     AA8:	04F0      	bne        +0x4 <.LFB3+0x56:0xAAC[p]>
     AA9:	0A00      	**prefx    0xA
     AAA:	0214      	ld         al, #+0xA02
     AAB:	0AE0      	bra        +0xA <.LFB3+0x5F:0xAB5[p]>
     AAC:	0214      	ld         al, #+0x2
     AAD:	0027      	st         al, @(0x0, y)
     AAE:	0B17      	ld         al, @(+0xB, y)
     AAF:	0513      	ld         ah, @(+0x5, y)
     AB0:	0100      	**prefx    0x1
     AB1:	9800      	**prefx    0x98
     AB2:	EE9C      	bsr        +0x97EE <___libgatt_lib_db_222:0xA2A0[p]>
     AB3:	E199      	tst        @0xFFE1 <register al>
     AB4:	05F4      	beq        +0x5 <.LFB3+0x63:0xAB9[p]>
     AB5:	081B      	ld         x, @(+0x8, y)
     AB6:	002B      	st         x, @(0x0, y)
     AB7:	0127      	st         al, @(+0x1, y)
     AB8:	40E0      	bra        +0x40 <.LFB3+0xA2:0xAF8[p]>
     AB9:	0C9B      	tst        @(+0xC, y)
     ABA:	16F0      	bne        +0x16 <.LFB3+0x7A:0xAD0[p]>
     ABB:	051B      	ld         x, @(+0x5, y)
     ABC:	0012      	ld         ah, @(0x0, x)
     ABD:	0009      	**unsigned
     ABE:	08A4      	lsr        #0x8
     ABF:	04C0      	and        ah, #0x4
     AC0:	10F4      	beq        +0x10 <.LFB3+0x7A:0xAD0[p]>
     AC1:	8000      	**prefx    0x80
     AC2:	0114      	ld         al, #-0x7FFF
     AC3:	0027      	st         al, @(0x0, y)
     AC4:	0018      	ld         x, #+0x0
     AC5:	012B      	st         x, @(+0x1, y)
     AC6:	022B      	st         x, @(+0x2, y)
     AC7:	032B      	st         x, @(+0x3, y)
     AC8:	0B1B      	ld         x, @(+0xB, y)
     AC9:	0016      	ld         al, @(0x0, x)
     ACA:	0813      	ld         ah, @(+0x8, y)
     ACB:	0100      	**prefx    0x1
     ACC:	9800      	**prefx    0x98
     ACD:	FB9C      	bsr        +0x97FB <___libgatt_lib_db_226:0xA2C8[p]>
     ACE:	0014      	ld         al, #+0x0
     ACF:	42E0      	bra        +0x42 <.LFB3+0xBB:0xB11[p]>
     AD0:	0014      	ld         al, #+0x0
     AD1:	0027      	st         al, @(0x0, y)
     AD2:	061B      	ld         x, @(+0x6, y)
     AD3:	012B      	st         x, @(+0x1, y)
     AD4:	0917      	ld         al, @(+0x9, y)
     AD5:	0513      	ld         ah, @(+0x5, y)
     AD6:	0100      	**prefx    0x1
     AD7:	A100      	**prefx    0xA1
     AD8:	669C      	bsr        +0xA166 <___libgatt_lib_db_282:0xAC3E[p]>
     AD9:	061B      	ld         x, @(+0x6, y)
     ADA:	E159      	sub        x, @0xFFE1 <register al>
     ADB:	062B      	st         x, @(+0x6, y)
     ADC:	0014      	ld         al, #+0x0
     ADD:	0C27      	st         al, @(+0xC, y)
     ADE:	0DE0      	bra        +0xD <.LFB3+0x95:0xAEB[p]>
     ADF:	0517      	ld         al, @(+0x5, y)
     AE0:	E411      	ld         ah, @0xFFE4 <register uy>
     AE1:	0430      	add        ah, #+0x4
     AE2:	0100      	**prefx    0x1
     AE3:	A200      	**prefx    0xA2
     AE4:	8C9C      	bsr        +0xA18C <___libgatt_lib_db_279:0xAC70[p]>
     AE5:	0527      	st         al, @(+0x5, y)
     AE6:	059B      	tst        @(+0x5, y)
     AE7:	0CF4      	beq        +0xC <.LFB3+0x9D:0xAF3[p]>
     AE8:	0417      	ld         al, @(+0x4, y)
     AE9:	0887      	cmp        al, @(+0x8, y)
     AEA:	B72C      	bcz        -0x49 <.LFB3+0x4B:0xAA1[p]>
     AEB:	0417      	ld         al, @(+0x4, y)
     AEC:	0887      	cmp        al, @(+0x8, y)
     AED:	022C      	bcz        +0x2 <.LFB3+0x99:0xAEF[p]>
     AEE:	05E0      	bra        +0x5 <.LFB3+0x9D:0xAF3[p]>
     AEF:	071B      	ld         x, @(+0x7, y)
     AF0:	FE38      	add        x, #-0x2
     AF1:	072B      	st         x, @(+0x7, y)
     AF2:	16E0      	bra        +0x16 <.LFB3+0xB2:0xB08[p]>
     AF3:	0817      	ld         al, @(+0x8, y)
     AF4:	0027      	st         al, @(0x0, y)
     AF5:	0A00      	**prefx    0xA
     AF6:	0118      	ld         x, #+0xA01
     AF7:	012B      	st         x, @(+0x1, y)
     AF8:	0B17      	ld         al, @(+0xB, y)
     AF9:	0E10      	ld         ah, #+0xE
     AFA:	0100      	**prefx    0x1
     AFB:	8E00      	**prefx    0x8E
     AFC:	8F9C      	bsr        +0x8D8F <___libgatt_lib_db_143:0x988B[p]>
     AFD:	13E0      	bra        +0x13 <.LFB3+0xBA:0xB10[p]>
     AFE:	0B17      	ld         al, @(+0xB, y)
     AFF:	0100      	**prefx    0x1
     B00:	9734      	add        al, #+0x97
     B01:	0A27      	st         al, @(+0xA, y)
     B02:	0B1B      	ld         x, @(+0xB, y)
     B03:	0100      	**prefx    0x1
     B04:	9A38      	add        x, #+0x9A
     B05:	092B      	st         x, @(+0x9, y)
     B06:	0014      	ld         al, #+0x0
     B07:	0527      	st         al, @(+0x5, y)
     B08:	079B      	tst        @(+0x7, y)
     B09:	03F4      	beq        +0x3 <.LFB3+0xB6:0xB0C[p]>
     B0A:	069B      	tst        @(+0x6, y)
     B0B:	86F0      	bne        -0x7A <.LFB3+0x3B:0xA91[p]>
     B0C:	0B17      	ld         al, @(+0xB, y)
     B0D:	0100      	**prefx    0x1
     B0E:	9100      	**prefx    0x91
     B0F:	B89C      	bsr        +0x90B8 <___libgatt_lib_db_165:0x9BC7[p]>
     B10:	0114      	ld         al, #+0x1
     B11:	0E0F      	leave      #+0xE

0x00000B12 <.LFB16>:
     B12:	040B      	enter      #+0x4
     B13:	0227      	st         al, @(+0x2, y)
     B14:	E119      	ld         x, @0xFFE1 <register al>
     B15:	9700      	**prefx    0x97
     B16:	5516      	ld         al, @(-0x68AB, x)
     B17:	0684      	cmp        al, #+0x6
     B18:	25F0      	bne        +0x25 <.LFB16+0x2B:0xB3D[p]>
     B19:	F600      	**prefx    0xF6
     B1A:	6C19      	ld         x, @0xF66C <___libgatt_lib_db_1944>
     B1B:	0217      	ld         al, @(+0x2, y)
     B1C:	02A0      	asl        #0x2
     B1D:	F825      	st         al, @0xFFF8 <(scratchpad)>
     B1E:	0214      	ld         al, #+0x2
     B1F:	F8A1      	asl        @0xFFF8 <(scratchpad)>
     B20:	E1C9      	and        x, @0xFFE1 <register al>
     B21:	1CF4      	beq        +0x1C <.LFB16+0x2B:0xB3D[p]>
     B22:	3900      	**prefx    0x39
     B23:	C915      	ld         al, @0x38C9 <patch_pending_mode+0x1>
     B24:	0127      	st         al, @(+0x1, y)
     B25:	3900      	**prefx    0x39
     B26:	C911      	ld         ah, @0x38C9 <patch_pending_mode+0x1>
     B27:	B900      	**prefx    0xB9
     B28:	AF30      	add        ah, #-0x4751
     B29:	0217      	ld         al, @(+0x2, y)
     B2A:	FF23      	st         ah, @(-0x1, y)
     B2B:	FF9F      	bsr        @(-0x1, y)
     B2C:	E111      	ld         ah, @0xFFE1 <register al>
     B2D:	0117      	ld         al, @(+0x1, y)
     B2E:	B700      	**prefx    0xB7
     B2F:	6234      	add        al, #-0x489E
     B30:	0127      	st         al, @(+0x1, y)
     B31:	2818      	ld         x, #+0x28
     B32:	002B      	st         x, @(0x0, y)
     B33:	0014      	ld         al, #+0x0
     B34:	019F      	bsr        @(+0x1, y)
     B35:	3900      	**prefx    0x39
     B36:	C911      	ld         ah, @0x38C9 <patch_pending_mode+0x1>
     B37:	BD00      	**prefx    0xBD
     B38:	B630      	add        ah, #-0x434A
     B39:	0217      	ld         al, @(+0x2, y)
     B3A:	FF23      	st         ah, @(-0x1, y)
     B3B:	FF9F      	bsr        @(-0x1, y)
     B3C:	09E0      	bra        +0x9 <.LFB16+0x33:0xB45[p]>
     B3D:	3900      	**prefx    0x39
     B3E:	C919      	ld         x, @0x38C9 <patch_pending_mode+0x1>
     B3F:	BE00      	**prefx    0xBE
     B40:	FC38      	add        x, #-0x4204
     B41:	0217      	ld         al, @(+0x2, y)
     B42:	0010      	ld         ah, #+0x0
     B43:	FF2B      	st         x, @(-0x1, y)
     B44:	FF9F      	bsr        @(-0x1, y)
     B45:	040F      	leave      #+0x4

0x00000B46 <___libgatt_lib_db_4607>:
     B46:	010B      	enter      #+0x1
     B47:	E119      	ld         x, @0xFFE1 <register al>
     B48:	0217      	ld         al, @(+0x2, y)
     B49:	0026      	st         al, @(0x0, x)
     B4A:	0117      	ld         al, @(+0x1, y)
     B4B:	0126      	st         al, @(+0x1, x)
     B4C:	0222      	st         ah, @(+0x2, x)
     B4D:	010F      	leave      #+0x1

0x00000B4E <___libgatt_lib_db_4614>:
     B4E:	020B      	enter      #+0x2
     B4F:	0617      	ld         al, @(+0x6, y)
     B50:	CE00      	**prefx    0xCE
     B51:	2384      	cmp        al, #-0x31DD
     B52:	16F0      	bne        +0x16 <___libgatt_lib_db_4614+0x1A:0xB68[p]>
     B53:	3900      	**prefx    0x39
     B54:	E699      	tst        @0x38E6 <enable_lowduty_directed_adv>
     B55:	13F4      	beq        +0x13 <___libgatt_lib_db_4614+0x1A:0xB68[p]>
     B56:	0417      	ld         al, @(+0x4, y)
     B57:	3900      	**prefx    0x39
     B58:	C919      	ld         x, @0x38C9 <patch_pending_mode+0x1>
     B59:	F829      	st         x, @0xFFF8 <(scratchpad)>
     B5A:	5790      	smult      #+0x57
     B5B:	9700      	**prefx    0x97
     B5C:	5534      	add        al, #-0x68AB
     B5D:	0027      	st         al, @(0x0, y)
     B5E:	E119      	ld         x, @0xFFE1 <register al>
     B5F:	6216      	ld         al, @(+0x62, x)
     B60:	F819      	ld         x, @0xFFF8 <(scratchpad)>
     B61:	E000      	**prefx    0xE0
     B62:	1938      	add        x, #-0x1FE7
     B63:	FF2B      	st         x, @(-0x1, y)
     B64:	FF9F      	bsr        @(-0x1, y)
     B65:	0014      	ld         al, #+0x0
     B66:	001B      	ld         x, @(0x0, y)
     B67:	6226      	st         al, @(+0x62, x)
     B68:	020F      	leave      #+0x2

0x00000B69 <___libgatt_lib_db_4613>:
     B69:	1E0B      	enter      #+0x1E
     B6A:	3817      	ld         al, @(+0x38, y)
     B6B:	1B27      	st         al, @(+0x1B, y)
     B6C:	5790      	smult      #+0x57
     B6D:	9700      	**prefx    0x97
     B6E:	6B34      	add        al, #-0x6895
     B6F:	1827      	st         al, @(+0x18, y)
     B70:	0018      	ld         x, #+0x0
     B71:	022B      	st         x, @(+0x2, y)
     B72:	0014      	ld         al, #+0x0
     B73:	181B      	ld         x, @(+0x18, y)
     B74:	4B26      	st         al, @(+0x4B, x)
     B75:	181A      	ld         x, @(+0x18, x)
     B76:	1A2B      	st         x, @(+0x1A, y)
     B77:	181B      	ld         x, @(+0x18, y)
     B78:	111A      	ld         x, @(+0x11, x)
     B79:	192B      	st         x, @(+0x19, y)
     B7A:	181B      	ld         x, @(+0x18, y)
     B7B:	4F16      	ld         al, @(+0x4F, x)
     B7C:	1226      	st         al, @(+0x12, x)
     B7D:	5016      	ld         al, @(+0x50, x)
     B7E:	1326      	st         al, @(+0x13, x)
     B7F:	3900      	**prefx    0x39
     B80:	C919      	ld         x, @0x38C9 <patch_pending_mode+0x1>
     B81:	E315      	ld         al, @0xFFE3 <register uxl>
     B82:	CB00      	**prefx    0xCB
     B83:	F034      	add        al, #-0x3510
     B84:	F825      	st         al, @0xFFF8 <(scratchpad)>
     B85:	181B      	ld         x, @(+0x18, y)
     B86:	4D12      	ld         ah, @(+0x4D, x)
     B87:	4E16      	ld         al, @(+0x4E, x)
     B88:	0027      	st         al, @(0x0, y)
     B89:	1B17      	ld         al, @(+0x1B, y)
     B8A:	F819      	ld         x, @0xFFF8 <(scratchpad)>
     B8B:	FF2B      	st         x, @(-0x1, y)
     B8C:	FF9F      	bsr        @(-0x1, y)
     B8D:	0014      	ld         al, #+0x0
     B8E:	181B      	ld         x, @(+0x18, y)
     B8F:	4D26      	st         al, @(+0x4D, x)
     B90:	1816      	ld         al, @(+0x18, x)
     B91:	02E0      	bra        +0x2 <___libgatt_lib_db_4613+0x2A:0xB93[p]>
     B92:	1937      	add        al, @(+0x19, y)
     B93:	1A87      	cmp        al, @(+0x1A, y)
     B94:	FEFC      	bcs        -0x2 <___libgatt_lib_db_4613+0x29:0xB92[p]>
     B95:	E111      	ld         ah, @0xFFE1 <register al>
     B96:	1A53      	sub        ah, @(+0x1A, y)
     B97:	191B      	ld         x, @(+0x19, y)
     B98:	0078      	nadd       x, #+0x0
     B99:	F829      	st         x, @0xFFF8 <(scratchpad)>
     B9A:	E019      	ld         x, @0xFFE0 <register ah>
     B9B:	F831      	add        ah, @0xFFF8 <(scratchpad)>
     B9C:	1917      	ld         al, @(+0x19, y)
     B9D:	E035      	add        al, @0xFFE0 <register ah>
     B9E:	1987      	cmp        al, @(+0x19, y)
     B9F:	FBF8      	bcc        -0x5 <___libgatt_lib_db_4613+0x31:0xB9A[p]>
     BA0:	042B      	st         x, @(+0x4, y)
     BA1:	0214      	ld         al, #+0x2
     BA2:	0327      	st         al, @(+0x3, y)
     BA3:	181B      	ld         x, @(+0x18, y)
     BA4:	111A      	ld         x, @(+0x11, x)
     BA5:	052B      	st         x, @(+0x5, y)
     BA6:	181B      	ld         x, @(+0x18, y)
     BA7:	121A      	ld         x, @(+0x12, x)
     BA8:	062B      	st         x, @(+0x6, y)
     BA9:	181B      	ld         x, @(+0x18, y)
     BAA:	131A      	ld         x, @(+0x13, x)
     BAB:	072B      	st         x, @(+0x7, y)
     BAC:	1B17      	ld         al, @(+0x1B, y)
     BAD:	0700      	**prefx    0x7
     BAE:	129C      	bsr        +0x712 <UART_SLOW_RATE_2K4:0x12C0[p]>
     BAF:	3900      	**prefx    0x39
     BB0:	C915      	ld         al, @0x38C9 <patch_pending_mode+0x1>
     BB1:	E500      	**prefx    0xE5
     BB2:	A734      	add        al, #-0x1B59
     BB3:	FF27      	st         al, @(-0x1, y)
     BB4:	FF9F      	bsr        @(-0x1, y)
     BB5:	3900      	**prefx    0x39
     BB6:	C919      	ld         x, @0x38C9 <patch_pending_mode+0x1>
     BB7:	D200      	**prefx    0xD2
     BB8:	1E38      	add        x, #-0x2DE2
     BB9:	1B17      	ld         al, @(+0x1B, y)
     BBA:	E411      	ld         ah, @0xFFE4 <register uy>
     BBB:	0130      	add        ah, #+0x1
     BBC:	FF2B      	st         x, @(-0x1, y)
     BBD:	FF9F      	bsr        @(-0x1, y)
     BBE:	3900      	**prefx    0x39
     BBF:	C915      	ld         al, @0x38C9 <patch_pending_mode+0x1>
     BC0:	B900      	**prefx    0xB9
     BC1:	6034      	add        al, #-0x46A0
     BC2:	FF27      	st         al, @(-0x1, y)
     BC3:	FF9F      	bsr        @(-0x1, y)
     BC4:	0827      	st         al, @(+0x8, y)
     BC5:	181B      	ld         x, @(+0x18, y)
     BC6:	0C16      	ld         al, @(+0xC, x)
     BC7:	0384      	cmp        al, #+0x3
     BC8:	5E2C      	bcz        +0x5E <___libgatt_lib_db_4613+0xBD:0xC26[p]>
     BC9:	3900      	**prefx    0x39
     BCA:	C919      	ld         x, @0x38C9 <patch_pending_mode+0x1>
     BCB:	D300      	**prefx    0xD3
     BCC:	C938      	add        x, #-0x2D37
     BCD:	3C14      	ld         al, #+0x3C
     BCE:	0313      	ld         ah, @(+0x3, y)
     BCF:	FF2B      	st         x, @(-0x1, y)
     BD0:	FF9F      	bsr        @(-0x1, y)
     BD1:	3900      	**prefx    0x39
     BD2:	C919      	ld         x, @0x38C9 <patch_pending_mode+0x1>
     BD3:	D300      	**prefx    0xD3
     BD4:	C938      	add        x, #-0x2D37
     BD5:	3D14      	ld         al, #+0x3D
     BD6:	0413      	ld         ah, @(+0x4, y)
     BD7:	FF2B      	st         x, @(-0x1, y)
     BD8:	FF9F      	bsr        @(-0x1, y)
     BD9:	3900      	**prefx    0x39
     BDA:	C915      	ld         al, @0x38C9 <patch_pending_mode+0x1>
     BDB:	E119      	ld         x, @0xFFE1 <register al>
     BDC:	D300      	**prefx    0xD3
     BDD:	C938      	add        x, #-0x2D37
     BDE:	F829      	st         x, @0xFFF8 <(scratchpad)>
     BDF:	181B      	ld         x, @(+0x18, y)
     BE0:	1112      	ld         ah, @(+0x11, x)
     BE1:	3014      	ld         al, #+0x30
     BE2:	F819      	ld         x, @0xFFF8 <(scratchpad)>
     BE3:	FF2B      	st         x, @(-0x1, y)
     BE4:	FF9F      	bsr        @(-0x1, y)
     BE5:	3900      	**prefx    0x39
     BE6:	C915      	ld         al, @0x38C9 <patch_pending_mode+0x1>
     BE7:	E119      	ld         x, @0xFFE1 <register al>
     BE8:	D300      	**prefx    0xD3
     BE9:	C938      	add        x, #-0x2D37
     BEA:	F829      	st         x, @0xFFF8 <(scratchpad)>
     BEB:	181B      	ld         x, @(+0x18, y)
     BEC:	1212      	ld         ah, @(+0x12, x)
     BED:	3214      	ld         al, #+0x32
     BEE:	F819      	ld         x, @0xFFF8 <(scratchpad)>
     BEF:	FF2B      	st         x, @(-0x1, y)
     BF0:	FF9F      	bsr        @(-0x1, y)
     BF1:	3900      	**prefx    0x39
     BF2:	C915      	ld         al, @0x38C9 <patch_pending_mode+0x1>
     BF3:	E119      	ld         x, @0xFFE1 <register al>
     BF4:	D300      	**prefx    0xD3
     BF5:	C938      	add        x, #-0x2D37
     BF6:	F829      	st         x, @0xFFF8 <(scratchpad)>
     BF7:	181B      	ld         x, @(+0x18, y)
     BF8:	1312      	ld         ah, @(+0x13, x)
     BF9:	3114      	ld         al, #+0x31
     BFA:	F819      	ld         x, @0xFFF8 <(scratchpad)>
     BFB:	FF2B      	st         x, @(-0x1, y)
     BFC:	FF9F      	bsr        @(-0x1, y)
     BFD:	3900      	**prefx    0x39
     BFE:	C919      	ld         x, @0x38C9 <patch_pending_mode+0x1>
     BFF:	D300      	**prefx    0xD3
     C00:	C938      	add        x, #-0x2D37
     C01:	2E14      	ld         al, #+0x2E
     C02:	0813      	ld         ah, @(+0x8, y)
     C03:	FF2B      	st         x, @(-0x1, y)
     C04:	FF9F      	bsr        @(-0x1, y)
     C05:	3900      	**prefx    0x39
     C06:	C915      	ld         al, @0x38C9 <patch_pending_mode+0x1>
     C07:	1C27      	st         al, @(+0x1C, y)
     C08:	3900      	**prefx    0x39
     C09:	C911      	ld         ah, @0x38C9 <patch_pending_mode+0x1>
     C0A:	D400      	**prefx    0xD4
     C0B:	C430      	add        ah, #-0x2C3C
     C0C:	1B17      	ld         al, @(+0x1B, y)
     C0D:	FF23      	st         ah, @(-0x1, y)
     C0E:	FF9F      	bsr        @(-0x1, y)
     C0F:	E111      	ld         ah, @0xFFE1 <register al>
     C10:	1C17      	ld         al, @(+0x1C, y)
     C11:	D300      	**prefx    0xD3
     C12:	C934      	add        al, #-0x2D37
     C13:	1C27      	st         al, @(+0x1C, y)
     C14:	5E14      	ld         al, #+0x5E
     C15:	1C9F      	bsr        @(+0x1C, y)
     C16:	3900      	**prefx    0x39
     C17:	C911      	ld         ah, @0x38C9 <patch_pending_mode+0x1>
     C18:	D300      	**prefx    0xD3
     C19:	DE30      	add        ah, #-0x2D22
     C1A:	5F14      	ld         al, #+0x5F
     C1B:	FF23      	st         ah, @(-0x1, y)
     C1C:	FF9F      	bsr        @(-0x1, y)
     C1D:	E111      	ld         ah, @0xFFE1 <register al>
     C1E:	3900      	**prefx    0x39
     C1F:	C919      	ld         x, @0x38C9 <patch_pending_mode+0x1>
     C20:	D300      	**prefx    0xD3
     C21:	C938      	add        x, #-0x2D37
     C22:	02B0      	or         ah, #+0x2
     C23:	5F14      	ld         al, #+0x5F
     C24:	FF2B      	st         x, @(-0x1, y)
     C25:	FF9F      	bsr        @(-0x1, y)
     C26:	3900      	**prefx    0x39
     C27:	C911      	ld         ah, @0x38C9 <patch_pending_mode+0x1>
     C28:	D200      	**prefx    0xD2
     C29:	2630      	add        ah, #-0x2DDA
     C2A:	E415      	ld         al, @0xFFE4 <register uy>
     C2B:	0134      	add        al, #+0x1
     C2C:	FF23      	st         ah, @(-0x1, y)
     C2D:	FF9F      	bsr        @(-0x1, y)
     C2E:	3900      	**prefx    0x39
     C2F:	C915      	ld         al, @0x38C9 <patch_pending_mode+0x1>
     C30:	E500      	**prefx    0xE5
     C31:	B034      	add        al, #-0x1B50
     C32:	FF27      	st         al, @(-0x1, y)
     C33:	FF9F      	bsr        @(-0x1, y)
     C34:	1B17      	ld         al, @(+0x1B, y)
     C35:	0600      	**prefx    0x6
     C36:	379C      	bsr        +0x637 <___libgatt_lib_db_4636:0x126D[p]>
     C37:	E199      	tst        @0xFFE1 <register al>
     C38:	FF00      	**prefx    0xFF
     C39:	73F4      	beq        -0x8D <___libgatt_lib_db_4613+0x43:0xBAC[p]>
     C3A:	3900      	**prefx    0x39
     C3B:	C919      	ld         x, @0x38C9 <patch_pending_mode+0x1>
     C3C:	C900      	**prefx    0xC9
     C3D:	4238      	add        x, #-0x36BE
     C3E:	0014      	ld         al, #+0x0
     C3F:	0027      	st         al, @(0x0, y)
     C40:	1B17      	ld         al, @(+0x1B, y)
     C41:	E411      	ld         ah, @0xFFE4 <register uy>
     C42:	0230      	add        ah, #+0x2
     C43:	FF2B      	st         x, @(-0x1, y)
     C44:	FF9F      	bsr        @(-0x1, y)
     C45:	3B0F      	leave      #+0x3B
     C46:	1E0F      	leave      #+0x1E

0x00000C47 <.LFB20>:
     C47:	160B      	enter      #+0x16
     C48:	1427      	st         al, @(+0x14, y)
     C49:	3900      	**prefx    0x39
     C4A:	C919      	ld         x, @0x38C9 <patch_pending_mode+0x1>
     C4B:	B700      	**prefx    0xB7
     C4C:	E838      	add        x, #-0x4918
     C4D:	0B00      	**prefx    0xB
     C4E:	B614      	ld         al, #+0xAB6
     C4F:	0910      	ld         ah, #+0x9
     C50:	FF2B      	st         x, @(-0x1, y)
     C51:	FF9F      	bsr        @(-0x1, y)
     C52:	1327      	st         al, @(+0x13, y)
     C53:	1417      	ld         al, @(+0x14, y)
     C54:	0600      	**prefx    0x6
     C55:	6B9C      	bsr        +0x66B <UART_SLOW_RATE_2K4:0x12C0[p]>
     C56:	3900      	**prefx    0x39
     C57:	C919      	ld         x, @0x38C9 <patch_pending_mode+0x1>
     C58:	D200      	**prefx    0xD2
     C59:	1E38      	add        x, #-0x2DE2
     C5A:	1417      	ld         al, @(+0x14, y)
     C5B:	E411      	ld         ah, @0xFFE4 <register uy>
     C5C:	0230      	add        ah, #+0x2
     C5D:	FF2B      	st         x, @(-0x1, y)
     C5E:	FF9F      	bsr        @(-0x1, y)
     C5F:	3900      	**prefx    0x39
     C60:	C919      	ld         x, @0x38C9 <patch_pending_mode+0x1>
     C61:	D200      	**prefx    0xD2
     C62:	7D38      	add        x, #-0x2D83
     C63:	E411      	ld         ah, @0xFFE4 <register uy>
     C64:	0630      	add        ah, #+0x6
     C65:	0023      	st         ah, @(0x0, y)
     C66:	5514      	ld         al, #+0x55
     C67:	FD30      	add        ah, #-0x3
     C68:	FF2B      	st         x, @(-0x1, y)
     C69:	FF9F      	bsr        @(-0x1, y)
     C6A:	3900      	**prefx    0x39
     C6B:	C919      	ld         x, @0x38C9 <patch_pending_mode+0x1>
     C6C:	D200      	**prefx    0xD2
     C6D:	7D38      	add        x, #-0x2D83
     C6E:	E411      	ld         ah, @0xFFE4 <register uy>
     C6F:	0830      	add        ah, #+0x8
     C70:	0023      	st         ah, @(0x0, y)
     C71:	5314      	ld         al, #+0x53
     C72:	FC30      	add        ah, #-0x4
     C73:	FF2B      	st         x, @(-0x1, y)
     C74:	FF9F      	bsr        @(-0x1, y)
     C75:	3900      	**prefx    0x39
     C76:	C919      	ld         x, @0x38C9 <patch_pending_mode+0x1>
     C77:	D200      	**prefx    0xD2
     C78:	7D38      	add        x, #-0x2D83
     C79:	E411      	ld         ah, @0xFFE4 <register uy>
     C7A:	0A30      	add        ah, #+0xA
     C7B:	0023      	st         ah, @(0x0, y)
     C7C:	3814      	ld         al, #+0x38
     C7D:	FB30      	add        ah, #-0x5
     C7E:	FF2B      	st         x, @(-0x1, y)
     C7F:	FF9F      	bsr        @(-0x1, y)
     C80:	3900      	**prefx    0x39
     C81:	C911      	ld         ah, @0x38C9 <patch_pending_mode+0x1>
     C82:	D300      	**prefx    0xD3
     C83:	DE30      	add        ah, #-0x2D22
     C84:	0014      	ld         al, #+0x0
     C85:	FF23      	st         ah, @(-0x1, y)
     C86:	FF9F      	bsr        @(-0x1, y)
     C87:	1227      	st         al, @(+0x12, y)
     C88:	3900      	**prefx    0x39
     C89:	C911      	ld         ah, @0x38C9 <patch_pending_mode+0x1>
     C8A:	D200      	**prefx    0xD2
     C8B:	2630      	add        ah, #-0x2DDA
     C8C:	E415      	ld         al, @0xFFE4 <register uy>
     C8D:	0234      	add        al, #+0x2
     C8E:	FF23      	st         ah, @(-0x1, y)
     C8F:	FF9F      	bsr        @(-0x1, y)
     C90:	0613      	ld         ah, @(+0x6, y)
     C91:	0717      	ld         al, @(+0x7, y)
     C92:	0127      	st         al, @(+0x1, y)
     C93:	0023      	st         ah, @(0x0, y)
     C94:	E415      	ld         al, @0xFFE4 <register uy>
     C95:	0C34      	add        al, #+0xC
     C96:	0313      	ld         ah, @(+0x3, y)
     C97:	FF00      	**prefx    0xFF
     C98:	AE9C      	bsr        -0x152 <___libgatt_lib_db_4607:0xB46[p]>
     C99:	0813      	ld         ah, @(+0x8, y)
     C9A:	091B      	ld         x, @(+0x9, y)
     C9B:	012B      	st         x, @(+0x1, y)
     C9C:	0023      	st         ah, @(0x0, y)
     C9D:	E415      	ld         al, @0xFFE4 <register uy>
     C9E:	0F34      	add        al, #+0xF
     C9F:	0413      	ld         ah, @(+0x4, y)
     CA0:	FF00      	**prefx    0xFF
     CA1:	A59C      	bsr        -0x15B <___libgatt_lib_db_4607:0xB46[p]>
     CA2:	E411      	ld         ah, @0xFFE4 <register uy>
     CA3:	0C30      	add        ah, #+0xC
     CA4:	0023      	st         ah, @(0x0, y)
     CA5:	E415      	ld         al, @0xFFE4 <register uy>
     CA6:	0F34      	add        al, #+0xF
     CA7:	E111      	ld         ah, @0xFFE1 <register al>
     CA8:	0100      	**prefx    0x1
     CA9:	8100      	**prefx    0x81
     CAA:	B09C      	bsr        +0x80B0 <TimeSub48:0x8D5A[p]>
     CAB:	109B      	tst        @(+0x10, y)
     CAC:	03F0      	bne        +0x3 <.LFB20+0x68:0xCAF[p]>
     CAD:	119B      	tst        @(+0x11, y)
     CAE:	03F4      	beq        +0x3 <.LFB20+0x6A:0xCB1[p]>
     CAF:	FF14      	ld         al, #-0x1
     CB0:	0F27      	st         al, @(+0xF, y)
     CB1:	0F13      	ld         ah, @(+0xF, y)
     CB2:	131B      	ld         x, @(+0x13, y)
     CB3:	0222      	st         ah, @(+0x2, x)
     CB4:	F700      	**prefx    0xF7
     CB5:	B311      	ld         ah, @0xF6B3 <___libgatt_lib_db_2015>
     CB6:	E415      	ld         al, @0xFFE4 <register uy>
     CB7:	0C34      	add        al, #+0xC
     CB8:	0100      	**prefx    0x1
     CB9:	8100      	**prefx    0x81
     CBA:	949C      	bsr        +0x8094 <TimeIncrement48:0x8D4E[p]>
     CBB:	1317      	ld         al, @(+0x13, y)
     CBC:	0634      	add        al, #+0x6
     CBD:	3900      	**prefx    0x39
     CBE:	E718      	ld         x, #+0x38E7
     CBF:	002B      	st         x, @(0x0, y)
     CC0:	E411      	ld         ah, @0xFFE4 <register uy>
     CC1:	0C30      	add        ah, #+0xC
     CC2:	0100      	**prefx    0x1
     CC3:	8100      	**prefx    0x81
     CC4:	969C      	bsr        +0x8096 <TimeSub48:0x8D5A[p]>
     CC5:	0A13      	ld         ah, @(+0xA, y)
     CC6:	0B17      	ld         al, @(+0xB, y)
     CC7:	0127      	st         al, @(+0x1, y)
     CC8:	0023      	st         ah, @(0x0, y)
     CC9:	E415      	ld         al, @0xFFE4 <register uy>
     CCA:	0F34      	add        al, #+0xF
     CCB:	0513      	ld         ah, @(+0x5, y)
     CCC:	FE00      	**prefx    0xFE
     CCD:	799C      	bsr        -0x187 <___libgatt_lib_db_4607:0xB46[p]>
     CCE:	E419      	ld         x, @0xFFE4 <register uy>
     CCF:	0C38      	add        x, #+0xC
     CD0:	002B      	st         x, @(0x0, y)
     CD1:	E415      	ld         al, @0xFFE4 <register uy>
     CD2:	0F34      	add        al, #+0xF
     CD3:	E111      	ld         ah, @0xFFE1 <register al>
     CD4:	0100      	**prefx    0x1
     CD5:	8100      	**prefx    0x81
     CD6:	849C      	bsr        +0x8084 <TimeSub48:0x8D5A[p]>
     CD7:	1217      	ld         al, @(+0x12, y)
     CD8:	0009      	**unsigned
     CD9:	0500      	**prefx    0x5
     CDA:	E290      	umult      #0x4E2
     CDB:	0127      	st         al, @(+0x1, y)
     CDC:	0023      	st         ah, @(0x0, y)
     CDD:	E415      	ld         al, @0xFFE4 <register uy>
     CDE:	0C34      	add        al, #+0xC
     CDF:	0010      	ld         ah, #+0x0
     CE0:	FE00      	**prefx    0xFE
     CE1:	659C      	bsr        -0x19B <___libgatt_lib_db_4607:0xB46[p]>
     CE2:	1317      	ld         al, @(+0x13, y)
     CE3:	0334      	add        al, #+0x3
     CE4:	E419      	ld         x, @0xFFE4 <register uy>
     CE5:	0C38      	add        x, #+0xC
     CE6:	002B      	st         x, @(0x0, y)
     CE7:	E411      	ld         ah, @0xFFE4 <register uy>
     CE8:	0F30      	add        ah, #+0xF
     CE9:	0100      	**prefx    0x1
     CEA:	8000      	**prefx    0x80
     CEB:	6F9C      	bsr        +0x806F <TimeSub48:0x8D5A[p]>
     CEC:	3900      	**prefx    0x39
     CED:	C911      	ld         ah, @0x38C9 <patch_pending_mode+0x1>
     CEE:	B900      	**prefx    0xB9
     CEF:	AF30      	add        ah, #-0x4751
     CF0:	1417      	ld         al, @(+0x14, y)
     CF1:	FF23      	st         ah, @(-0x1, y)
     CF2:	FF9F      	bsr        @(-0x1, y)
     CF3:	131B      	ld         x, @(+0x13, y)
     CF4:	0126      	st         al, @(+0x1, x)
     CF5:	3900      	**prefx    0x39
     CF6:	C911      	ld         ah, @0x38C9 <patch_pending_mode+0x1>
     CF7:	B600      	**prefx    0xB6
     CF8:	2030      	add        ah, #-0x49E0
     CF9:	E315      	ld         al, @0xFFE3 <register uxl>
     CFA:	FF23      	st         ah, @(-0x1, y)
     CFB:	FF9F      	bsr        @(-0x1, y)
     CFC:	160F      	leave      #+0x16

0x00000CFD <.LFB13>:
     CFD:	0C0B      	enter      #+0xC
     CFE:	0927      	st         al, @(+0x9, y)
     CFF:	0A23      	st         ah, @(+0xA, y)
     D00:	E015      	ld         al, @0xFFE0 <register ah>
     D01:	4000      	**prefx    0x40
     D02:	00C4      	and        al, #0x4000
     D03:	5BF4      	beq        +0x5B <.LFB13+0x61:0xD5E[p]>
     D04:	091B      	ld         x, @(+0x9, y)
     D05:	9700      	**prefx    0x97
     D06:	5516      	ld         al, @(-0x68AB, x)
     D07:	0684      	cmp        al, #+0x6
     D08:	52F0      	bne        +0x52 <.LFB13+0x5D:0xD5A[p]>
     D09:	E315      	ld         al, @0xFFE3 <register uxl>
     D0A:	5790      	smult      #+0x57
     D0B:	E119      	ld         x, @0xFFE1 <register al>
     D0C:	9700      	**prefx    0x97
     D0D:	6B38      	add        x, #-0x6895
     D0E:	5516      	ld         al, @(+0x55, x)
     D0F:	0384      	cmp        al, #+0x3
     D10:	03F0      	bne        +0x3 <.LFB13+0x16:0xD13[p]>
     D11:	0014      	ld         al, #+0x0
     D12:	5626      	st         al, @(+0x56, x)
     D13:	5516      	ld         al, @(+0x55, x)
     D14:	0284      	cmp        al, #+0x2
     D15:	45F0      	bne        +0x45 <.LFB13+0x5D:0xD5A[p]>
     D16:	9700      	**prefx    0x97
     D17:	5799      	tst        @0x9757 <le_device+0x2>
     D18:	25F0      	bne        +0x25 <.LFB13+0x40:0xD3D[p]>
     D19:	3900      	**prefx    0x39
     D1A:	C919      	ld         x, @0x38C9 <patch_pending_mode+0x1>
     D1B:	D200      	**prefx    0xD2
     D1C:	1E38      	add        x, #-0x2DE2
     D1D:	0917      	ld         al, @(+0x9, y)
     D1E:	E411      	ld         ah, @0xFFE4 <register uy>
     D1F:	FF2B      	st         x, @(-0x1, y)
     D20:	FF9F      	bsr        @(-0x1, y)
     D21:	3900      	**prefx    0x39
     D22:	C911      	ld         ah, @0x38C9 <patch_pending_mode+0x1>
     D23:	D300      	**prefx    0xD3
     D24:	DE30      	add        ah, #-0x2D22
     D25:	1D14      	ld         al, #+0x1D
     D26:	FF23      	st         ah, @(-0x1, y)
     D27:	FF9F      	bsr        @(-0x1, y)
     D28:	0627      	st         al, @(+0x6, y)
     D29:	3900      	**prefx    0x39
     D2A:	C911      	ld         ah, @0x38C9 <patch_pending_mode+0x1>
     D2B:	D200      	**prefx    0xD2
     D2C:	2630      	add        ah, #-0x2DDA
     D2D:	E415      	ld         al, @0xFFE4 <register uy>
     D2E:	FF23      	st         ah, @(-0x1, y)
     D2F:	FF9F      	bsr        @(-0x1, y)
     D30:	0617      	ld         al, @(+0x6, y)
     D31:	07C4      	and        al, #0x7
     D32:	0684      	cmp        al, #+0x6
     D33:	06F0      	bne        +0x6 <.LFB13+0x3C:0xD39[p]>
     D34:	4B00      	**prefx    0x4B
     D35:	4B18      	ld         x, #+0x4B4B
     D36:	F600      	**prefx    0xF6
     D37:	4F29      	st         x, @0xF64F <___libgatt_lib_db_1805>
     D38:	22E0      	bra        +0x22 <.LFB13+0x5D:0xD5A[p]>
     D39:	7F00      	**prefx    0x7F
     D3A:	4A14      	ld         al, #+0x7F4A
     D3B:	F600      	**prefx    0xF6
     D3C:	4F25      	st         al, @0xF64F <___libgatt_lib_db_1805>
     D3D:	3900      	**prefx    0x39
     D3E:	C919      	ld         x, @0x38C9 <patch_pending_mode+0x1>
     D3F:	B700      	**prefx    0xB7
     D40:	E838      	add        x, #-0x4918
     D41:	0B00      	**prefx    0xB
     D42:	F814      	ld         al, #+0xAF8
     D43:	0310      	ld         ah, #+0x3
     D44:	FF2B      	st         x, @(-0x1, y)
     D45:	FF9F      	bsr        @(-0x1, y)
     D46:	0727      	st         al, @(+0x7, y)
     D47:	13F4      	beq        +0x13 <.LFB13+0x5D:0xD5A[p]>
     D48:	3900      	**prefx    0x39
     D49:	C911      	ld         ah, @0x38C9 <patch_pending_mode+0x1>
     D4A:	B900      	**prefx    0xB9
     D4B:	AF30      	add        ah, #-0x4751
     D4C:	0917      	ld         al, @(+0x9, y)
     D4D:	FF23      	st         ah, @(-0x1, y)
     D4E:	FF9F      	bsr        @(-0x1, y)
     D4F:	071B      	ld         x, @(+0x7, y)
     D50:	0126      	st         al, @(+0x1, x)
     D51:	0214      	ld         al, #+0x2
     D52:	0226      	st         al, @(+0x2, x)
     D53:	3900      	**prefx    0x39
     D54:	C911      	ld         ah, @0x38C9 <patch_pending_mode+0x1>
     D55:	B600      	**prefx    0xB6
     D56:	2030      	add        ah, #-0x49E0
     D57:	E315      	ld         al, @0xFFE3 <register uxl>
     D58:	FF23      	st         ah, @(-0x1, y)
     D59:	FF9F      	bsr        @(-0x1, y)
     D5A:	0A17      	ld         al, @(+0xA, y)
     D5B:	C000      	**prefx    0xC0
     D5C:	FFC4      	and        al, #0xBFFF
     D5D:	0A27      	st         al, @(+0xA, y)
     D5E:	0A17      	ld         al, @(+0xA, y)
     D5F:	04C4      	and        al, #0x4
     D60:	4CF4      	beq        +0x4C <.LFB13+0xAF:0xDAC[p]>
     D61:	0A17      	ld         al, @(+0xA, y)
     D62:	40C4      	and        al, #0x40
     D63:	49F0      	bne        +0x49 <.LFB13+0xAF:0xDAC[p]>
     D64:	3900      	**prefx    0x39
     D65:	C699      	tst        @0x38C6 <patch_pending>
     D66:	04F0      	bne        +0x4 <.LFB13+0x6D:0xD6A[p]>
     D67:	3900      	**prefx    0x39
     D68:	C799      	tst        @0x38C7 <patch_rx_timing_report>
     D69:	43F4      	beq        +0x43 <.LFB13+0xAF:0xDAC[p]>
     D6A:	091B      	ld         x, @(+0x9, y)
     D6B:	9700      	**prefx    0x97
     D6C:	5516      	ld         al, @(-0x68AB, x)
     D6D:	0684      	cmp        al, #+0x6
     D6E:	03F4      	beq        +0x3 <.LFB13+0x74:0xD71[p]>
     D6F:	0484      	cmp        al, #+0x4
     D70:	3CF0      	bne        +0x3C <.LFB13+0xAF:0xDAC[p]>
     D71:	3900      	**prefx    0x39
     D72:	C911      	ld         ah, @0x38C9 <patch_pending_mode+0x1>
     D73:	B600      	**prefx    0xB6
     D74:	9730      	add        ah, #-0x4A69
     D75:	E415      	ld         al, @0xFFE4 <register uy>
     D76:	0134      	add        al, #+0x1
     D77:	FF23      	st         ah, @(-0x1, y)
     D78:	FF9F      	bsr        @(-0x1, y)
     D79:	3900      	**prefx    0x39
     D7A:	C915      	ld         al, @0x38C9 <patch_pending_mode+0x1>
     D7B:	0327      	st         al, @(+0x3, y)
     D7C:	3900      	**prefx    0x39
     D7D:	C911      	ld         ah, @0x38C9 <patch_pending_mode+0x1>
     D7E:	D400      	**prefx    0xD4
     D7F:	F230      	add        ah, #-0x2C0E
     D80:	0917      	ld         al, @(+0x9, y)
     D81:	FF23      	st         ah, @(-0x1, y)
     D82:	FF9F      	bsr        @(-0x1, y)
     D83:	031B      	ld         x, @(+0x3, y)
     D84:	B600      	**prefx    0xB6
     D85:	B938      	add        x, #-0x4A47
     D86:	032B      	st         x, @(+0x3, y)
     D87:	039F      	bsr        @(+0x3, y)
     D88:	0527      	st         al, @(+0x5, y)
     D89:	3900      	**prefx    0x39
     D8A:	C911      	ld         ah, @0x38C9 <patch_pending_mode+0x1>
     D8B:	D400      	**prefx    0xD4
     D8C:	A630      	add        ah, #-0x2C5A
     D8D:	0917      	ld         al, @(+0x9, y)
     D8E:	FF23      	st         ah, @(-0x1, y)
     D8F:	FF9F      	bsr        @(-0x1, y)
     D90:	0537      	add        al, @(+0x5, y)
     D91:	E119      	ld         x, @0xFFE1 <register al>
     D92:	0016      	ld         al, @(0x0, x)
     D93:	03C4      	and        al, #0x3
     D94:	0427      	st         al, @(+0x4, y)
     D95:	3900      	**prefx    0x39
     D96:	C911      	ld         ah, @0x38C9 <patch_pending_mode+0x1>
     D97:	B600      	**prefx    0xB6
     D98:	A030      	add        ah, #-0x4A60
     D99:	E415      	ld         al, @0xFFE4 <register uy>
     D9A:	0134      	add        al, #+0x1
     D9B:	FF23      	st         ah, @(-0x1, y)
     D9C:	FF9F      	bsr        @(-0x1, y)
     D9D:	0417      	ld         al, @(+0x4, y)
     D9E:	0284      	cmp        al, #+0x2
     D9F:	0DF0      	bne        +0xD <.LFB13+0xAF:0xDAC[p]>
     DA0:	3900      	**prefx    0x39
     DA1:	C699      	tst        @0x38C6 <patch_pending>
     DA2:	04F4      	beq        +0x4 <.LFB13+0xA9:0xDA6[p]>
     DA3:	0917      	ld         al, @(+0x9, y)
     DA4:	0300      	**prefx    0x3
     DA5:	F79C      	bsr        +0x2F7 <___libgatt_lib_db_4625:0x109C[p]>
     DA6:	3900      	**prefx    0x39
     DA7:	C799      	tst        @0x38C7 <patch_rx_timing_report>
     DA8:	04F4      	beq        +0x4 <.LFB13+0xAF:0xDAC[p]>
     DA9:	0917      	ld         al, @(+0x9, y)
     DAA:	FF00      	**prefx    0xFF
     DAB:	9C9C      	bsr        -0x164 <.LFB20:0xC47[p]>
     DAC:	3900      	**prefx    0x39
     DAD:	C919      	ld         x, @0x38C9 <patch_pending_mode+0x1>
     DAE:	C300      	**prefx    0xC3
     DAF:	5138      	add        x, #-0x3CAF
     DB0:	0917      	ld         al, @(+0x9, y)
     DB1:	0A13      	ld         ah, @(+0xA, y)
     DB2:	FF2B      	st         x, @(-0x1, y)
     DB3:	FF9F      	bsr        @(-0x1, y)
     DB4:	0A9B      	tst        @(+0xA, y)
     DB5:	32E8      	bpl        +0x32 <.LFB13+0xEA:0xDE7[p]>
     DB6:	091B      	ld         x, @(+0x9, y)
     DB7:	9700      	**prefx    0x97
     DB8:	559A      	tst        @(-0x68AB, x)
     DB9:	2EF4      	beq        +0x2E <.LFB13+0xEA:0xDE7[p]>
     DBA:	0014      	ld         al, #+0x0
     DBB:	0500      	**prefx    0x5
     DBC:	049C      	bsr        +0x504 <UART_SLOW_RATE_2K4:0x12C0[p]>
     DBD:	3900      	**prefx    0x39
     DBE:	C919      	ld         x, @0x38C9 <patch_pending_mode+0x1>
     DBF:	D200      	**prefx    0xD2
     DC0:	1E38      	add        x, #-0x2DE2
     DC1:	0917      	ld         al, @(+0x9, y)
     DC2:	E411      	ld         ah, @0xFFE4 <register uy>
     DC3:	FF2B      	st         x, @(-0x1, y)
     DC4:	FF9F      	bsr        @(-0x1, y)
     DC5:	3900      	**prefx    0x39
     DC6:	C911      	ld         ah, @0x38C9 <patch_pending_mode+0x1>
     DC7:	D300      	**prefx    0xD3
     DC8:	DE30      	add        ah, #-0x2D22
     DC9:	2514      	ld         al, #+0x25
     DCA:	FF23      	st         ah, @(-0x1, y)
     DCB:	FF9F      	bsr        @(-0x1, y)
     DCC:	0827      	st         al, @(+0x8, y)
     DCD:	3900      	**prefx    0x39
     DCE:	C911      	ld         ah, @0x38C9 <patch_pending_mode+0x1>
     DCF:	D200      	**prefx    0xD2
     DD0:	2630      	add        ah, #-0x2DDA
     DD1:	E415      	ld         al, @0xFFE4 <register uy>
     DD2:	FF23      	st         ah, @(-0x1, y)
     DD3:	FF9F      	bsr        @(-0x1, y)
     DD4:	0817      	ld         al, @(+0x8, y)
     DD5:	0100      	**prefx    0x1
     DD6:	CA84      	cmp        al, #+0xCA
     DD7:	10F0      	bne        +0x10 <.LFB13+0xEA:0xDE7[p]>
     DD8:	F100      	**prefx    0xF1
     DD9:	1215      	ld         al, @0xF112 <___libgatt_lib_db_1698>
     DDA:	04B4      	or         al, #+0x4
     DDB:	F100      	**prefx    0xF1
     DDC:	1225      	st         al, @0xF112 <___libgatt_lib_db_1698>
     DDD:	0014      	ld         al, #+0x0
     DDE:	0000      	**prefx    0x0
     DDF:	0134      	add        al, #+0x1
     DE0:	6484      	cmp        al, #+0x64
     DE1:	FDF0      	bne        -0x3 <.LFB13+0xE1:0xDDE[p]>
     DE2:	F100      	**prefx    0xF1
     DE3:	1215      	ld         al, @0xF112 <___libgatt_lib_db_1698>
     DE4:	FBC4      	and        al, #0xFFFB
     DE5:	F100      	**prefx    0xF1
     DE6:	1225      	st         al, @0xF112 <___libgatt_lib_db_1698>
     DE7:	0C0F      	leave      #+0xC

0x00000DE8 <___libgatt_lib_db_4550>:
     DE8:	020B      	enter      #+0x2
     DE9:	F600      	**prefx    0xF6
     DEA:	4C15      	ld         al, @0xF64C <___libgatt_lib_db_1778>
     DEB:	0027      	st         al, @(0x0, y)
     DEC:	F600      	**prefx    0xF6
     DED:	4925      	st         al, @0xF649 <___libgatt_lib_db_1779>
     DEE:	E111      	ld         ah, @0xFFE1 <register al>
     DEF:	B7C0      	and        ah, #0xFFB7
     DF0:	0114      	ld         al, #+0x1
     DF1:	FF00      	**prefx    0xFF
     DF2:	0B9C      	bsr        -0xF5 <.LFB13:0xCFD[p]>
     DF3:	0017      	ld         al, @(0x0, y)
     DF4:	08C4      	and        al, #0x8
     DF5:	0BF4      	beq        +0xB <___libgatt_lib_db_4550+0x18:0xE00[p]>
     DF6:	9700      	**prefx    0x97
     DF7:	5699      	tst        @0x9756 <le_device+0x1>
     DF8:	08F4      	beq        +0x8 <___libgatt_lib_db_4550+0x18:0xE00[p]>
     DF9:	0114      	ld         al, #+0x1
     DFA:	0500      	**prefx    0x5
     DFB:	C59C      	bsr        +0x4C5 <UART_SLOW_RATE_2K4:0x12C0[p]>
     DFC:	0114      	ld         al, #+0x1
     DFD:	0810      	ld         ah, #+0x8
     DFE:	FF00      	**prefx    0xFF
     DFF:	FE9C      	bsr        -0x102 <.LFB13:0xCFD[p]>
     E00:	0017      	ld         al, @(0x0, y)
     E01:	40C4      	and        al, #0x40
     E02:	04F4      	beq        +0x4 <___libgatt_lib_db_4550+0x1E:0xE06[p]>
     E03:	0114      	ld         al, #+0x1
     E04:	FD00      	**prefx    0xFD
     E05:	0D9C      	bsr        -0x2F3 <.LFB16:0xB12[p]>
     E06:	020F      	leave      #+0x2

0x00000E07 <___libgatt_lib_db_4549>:
     E07:	020B      	enter      #+0x2
     E08:	F600      	**prefx    0xF6
     E09:	4B15      	ld         al, @0xF64B <___libgatt_lib_db_1776>
     E0A:	0027      	st         al, @(0x0, y)
     E0B:	F600      	**prefx    0xF6
     E0C:	4825      	st         al, @0xF648 <___libgatt_lib_db_1777>
     E0D:	E111      	ld         ah, @0xFFE1 <register al>
     E0E:	B7C0      	and        ah, #0xFFB7
     E0F:	0014      	ld         al, #+0x0
     E10:	FF00      	**prefx    0xFF
     E11:	EC9C      	bsr        -0x114 <.LFB13:0xCFD[p]>
     E12:	0017      	ld         al, @(0x0, y)
     E13:	08C4      	and        al, #0x8
     E14:	0BF4      	beq        +0xB <___libgatt_lib_db_4549+0x18:0xE1F[p]>
     E15:	9700      	**prefx    0x97
     E16:	5599      	tst        @0x9755 <le_device>
     E17:	08F4      	beq        +0x8 <___libgatt_lib_db_4549+0x18:0xE1F[p]>
     E18:	0014      	ld         al, #+0x0
     E19:	0500      	**prefx    0x5
     E1A:	A69C      	bsr        +0x4A6 <UART_SLOW_RATE_2K4:0x12C0[p]>
     E1B:	0014      	ld         al, #+0x0
     E1C:	0810      	ld         ah, #+0x8
     E1D:	FF00      	**prefx    0xFF
     E1E:	DF9C      	bsr        -0x121 <.LFB13:0xCFD[p]>
     E1F:	0017      	ld         al, @(0x0, y)
     E20:	40C4      	and        al, #0x40
     E21:	04F4      	beq        +0x4 <___libgatt_lib_db_4549+0x1E:0xE25[p]>
     E22:	0014      	ld         al, #+0x0
     E23:	FD00      	**prefx    0xFD
     E24:	EE9C      	bsr        -0x312 <.LFB16:0xB12[p]>
     E25:	0017      	ld         al, @(0x0, y)
     E26:	1000      	**prefx    0x10
     E27:	00C4      	and        al, #0x1000
     E28:	0EF4      	beq        +0xE <___libgatt_lib_db_4549+0x2F:0xE36[p]>
     E29:	F600      	**prefx    0xF6
     E2A:	3D15      	ld         al, @0xF63D <___libgatt_lib_db_1819>
     E2B:	F000      	**prefx    0xF0
     E2C:	FFC4      	and        al, #0xEFFF
     E2D:	F600      	**prefx    0xF6
     E2E:	3D25      	st         al, @0xF63D <___libgatt_lib_db_1819>
     E2F:	3900      	**prefx    0x39
     E30:	C911      	ld         ah, @0x38C9 <patch_pending_mode+0x1>
     E31:	E400      	**prefx    0xE4
     E32:	F630      	add        ah, #-0x1C0A
     E33:	0114      	ld         al, #+0x1
     E34:	FF23      	st         ah, @(-0x1, y)
     E35:	FF9F      	bsr        @(-0x1, y)
     E36:	020F      	leave      #+0x2

0x00000E37 <___libgatt_lib_db_4608>:
     E37:	210B      	enter      #+0x21
     E38:	1727      	st         al, @(+0x17, y)
     E39:	1823      	st         ah, @(+0x18, y)
     E3A:	5790      	smult      #+0x57
     E3B:	9700      	**prefx    0x97
     E3C:	6B34      	add        al, #-0x6895
     E3D:	1227      	st         al, @(+0x12, y)
     E3E:	3900      	**prefx    0x39
     E3F:	C915      	ld         al, @0x38C9 <patch_pending_mode+0x1>
     E40:	E500      	**prefx    0xE5
     E41:	A734      	add        al, #-0x1B59
     E42:	FF27      	st         al, @(-0x1, y)
     E43:	FF9F      	bsr        @(-0x1, y)
     E44:	0010      	ld         ah, #+0x0
     E45:	121B      	ld         x, @(+0x12, y)
     E46:	5522      	st         ah, @(+0x55, x)
     E47:	5622      	st         ah, @(+0x56, x)
     E48:	3900      	**prefx    0x39
     E49:	C911      	ld         ah, @0x38C9 <patch_pending_mode+0x1>
     E4A:	E000      	**prefx    0xE0
     E4B:	1930      	add        ah, #-0x1FE7
     E4C:	4C16      	ld         al, @(+0x4C, x)
     E4D:	FF23      	st         ah, @(-0x1, y)
     E4E:	FF9F      	bsr        @(-0x1, y)
     E4F:	0010      	ld         ah, #+0x0
     E50:	121B      	ld         x, @(+0x12, y)
     E51:	4C22      	st         ah, @(+0x4C, x)
     E52:	3900      	**prefx    0x39
     E53:	C911      	ld         ah, @0x38C9 <patch_pending_mode+0x1>
     E54:	BA00      	**prefx    0xBA
     E55:	9430      	add        ah, #-0x466C
     E56:	1717      	ld         al, @(+0x17, y)
     E57:	FF23      	st         ah, @(-0x1, y)
     E58:	FF9F      	bsr        @(-0x1, y)
     E59:	171B      	ld         x, @(+0x17, y)
     E5A:	9700      	**prefx    0x97
     E5B:	5516      	ld         al, @(-0x68AB, x)
     E5C:	FF34      	add        al, #-0x1
     E5D:	0184      	cmp        al, #+0x1
     E5E:	102C      	bcz        +0x10 <___libgatt_lib_db_4608+0x37:0xE6E[p]>
     E5F:	9700      	**prefx    0x97
     E60:	5799      	tst        @0x9757 <le_device+0x2>
     E61:	0DF0      	bne        +0xD <___libgatt_lib_db_4608+0x37:0xE6E[p]>
     E62:	3900      	**prefx    0x39
     E63:	C911      	ld         ah, @0x38C9 <patch_pending_mode+0x1>
     E64:	E000      	**prefx    0xE0
     E65:	1930      	add        ah, #-0x1FE7
     E66:	9700      	**prefx    0x97
     E67:	5915      	ld         al, @0x9759 <le_device+0x4>
     E68:	FF23      	st         ah, @(-0x1, y)
     E69:	FF9F      	bsr        @(-0x1, y)
     E6A:	9700      	**prefx    0x97
     E6B:	5518      	ld         x, #-0x68AB
     E6C:	0010      	ld         ah, #+0x0
     E6D:	0422      	st         ah, @(+0x4, x)
     E6E:	3900      	**prefx    0x39
     E6F:	C919      	ld         x, @0x38C9 <patch_pending_mode+0x1>
     E70:	D200      	**prefx    0xD2
     E71:	1E38      	add        x, #-0x2DE2
     E72:	1717      	ld         al, @(+0x17, y)
     E73:	1813      	ld         ah, @(+0x18, y)
     E74:	FF2B      	st         x, @(-0x1, y)
     E75:	FF9F      	bsr        @(-0x1, y)
     E76:	171B      	ld         x, @(+0x17, y)
     E77:	9700      	**prefx    0x97
     E78:	559A      	tst        @(-0x68AB, x)
     E79:	0100      	**prefx    0x1
     E7A:	83F4      	beq        +0x83 <UART_RATE_921K6+0x3E:0xEFD[p]>
     E7B:	E415      	ld         al, @0xFFE4 <register uy>
     E7C:	0734      	add        al, #+0x7
     E7D:	0400      	**prefx    0x4
     E7E:	499C      	bsr        +0x449 <___libgatt_lib_db_4651:0x12C7[p]>
     E7F:	0710      	ld         ah, #+0x7
     E80:	F800      	**prefx    0xF8
     E81:	5621      	st         ah, @0xF856 <___libgatt_lib_db_3128>
     E82:	2814      	ld         al, #+0x28
     E83:	F000      	**prefx    0xF0
     E84:	5625      	st         al, @0xF056 <___libgatt_lib_db_1695>
     E85:	0018      	ld         x, #+0x0
     E86:	0E2B      	st         x, @(+0xE, y)
     E87:	0F2B      	st         x, @(+0xF, y)
     E88:	0D2B      	st         x, @(+0xD, y)
     E89:	03E0      	bra        +0x3 <___libgatt_lib_db_4608+0x55:0xE8C[p]>
     E8A:	0110      	ld         ah, #+0x1
     E8B:	0D23      	st         ah, @(+0xD, y)
     E8C:	FC00      	**prefx    0xFC
     E8D:	9311      	ld         ah, @0xFB93 <___libgatt_lib_db_3122>
     E8E:	E015      	ld         al, @0xFFE0 <register ah>
     E8F:	0100      	**prefx    0x1
     E90:	80C4      	and        al, #0x80
     E91:	1FF4      	beq        +0x1F <___libgatt_lib_db_4608+0x79:0xEB0[p]>
     E92:	E015      	ld         al, @0xFFE0 <register ah>
     E93:	07C4      	and        al, #0x7
     E94:	1CF4      	beq        +0x1C <___libgatt_lib_db_4608+0x79:0xEB0[p]>
     E95:	0184      	cmp        al, #+0x1
     E96:	04F4      	beq        +0x4 <___libgatt_lib_db_4608+0x63:0xE9A[p]>
     E97:	0014      	ld         al, #+0x0
     E98:	0D27      	st         al, @(+0xD, y)
     E99:	F3E0      	bra        -0xD <___libgatt_lib_db_4608+0x55:0xE8C[p]>
     E9A:	0D9B      	tst        @(+0xD, y)
     E9B:	10F4      	beq        +0x10 <___libgatt_lib_db_4608+0x74:0xEAB[p]>
     E9C:	7F00      	**prefx    0x7F
     E9D:	869C      	bsr        +0x7E86 <TimeGet32:0x8D23[p]>
     E9E:	1A27      	st         al, @(+0x1A, y)
     E9F:	1923      	st         ah, @(+0x19, y)
     EA0:	1A17      	ld         al, @(+0x1A, y)
     EA1:	1913      	ld         ah, @(+0x19, y)
     EA2:	0F57      	sub        al, @(+0xF, y)
     EA3:	0E63      	subc       ah, @(+0xE, y)
     EA4:	1A27      	st         al, @(+0x1A, y)
     EA5:	1923      	st         ah, @(+0x19, y)
     EA6:	53F0      	bne        +0x53 <UART_RATE_921K6+0x3A:0xEF9[p]>
     EA7:	1A1B      	ld         x, @(+0x1A, y)
     EA8:	6588      	cmp        x, #+0x65
     EA9:	50F8      	bcc        +0x50 <UART_RATE_921K6+0x3A:0xEF9[p]>
     EAA:	E0E0      	bra        -0x20 <___libgatt_lib_db_4608+0x53:0xE8A[p]>
     EAB:	7E00      	**prefx    0x7E
     EAC:	779C      	bsr        +0x7E77 <TimeGet32:0x8D23[p]>
     EAD:	0F27      	st         al, @(+0xF, y)
     EAE:	0E23      	st         ah, @(+0xE, y)
     EAF:	DBE0      	bra        -0x25 <___libgatt_lib_db_4608+0x53:0xE8A[p]>
     EB0:	0014      	ld         al, #+0x0
     EB1:	0127      	st         al, @(+0x1, y)
     EB2:	0118      	ld         x, #+0x1
     EB3:	022B      	st         x, @(+0x2, y)
     EB4:	3900      	**prefx    0x39
     EB5:	C919      	ld         x, @0x38C9 <patch_pending_mode+0x1>
     EB6:	D200      	**prefx    0xD2
     EB7:	7D38      	add        x, #-0x2D83
     EB8:	E411      	ld         ah, @0xFFE4 <register uy>
     EB9:	0330      	add        ah, #+0x3
     EBA:	0023      	st         ah, @(0x0, y)
     EBB:	1A14      	ld         al, #+0x1A
     EBC:	FE30      	add        ah, #-0x2
     EBD:	FF2B      	st         x, @(-0x1, y)
     EBE:	FF9F      	bsr        @(-0x1, y)
     EBF:	3900      	**prefx    0x39
     EC0:	C919      	ld         x, @0x38C9 <patch_pending_mode+0x1>
     EC1:	D200      	**prefx    0xD2
     EC2:	7D38      	add        x, #-0x2D83
     EC3:	E411      	ld         ah, @0xFFE4 <register uy>
     EC4:	0530      	add        ah, #+0x5
     EC5:	0023      	st         ah, @(0x0, y)
     EC6:	1A14      	ld         al, #+0x1A
     EC7:	FD30      	add        ah, #-0x3
     EC8:	FF2B      	st         x, @(-0x1, y)
     EC9:	FF9F      	bsr        @(-0x1, y)
     ECA:	0113      	ld         ah, @(+0x1, y)
     ECB:	0C23      	st         ah, @(+0xC, y)
     ECC:	021B      	ld         x, @(+0x2, y)
     ECD:	E381      	cmp        ah, @0xFFE3 <register uxl>
     ECE:	09F0      	bne        +0x9 <UART_RATE_921K6+0x18:0xED7[p]>
     ECF:	0413      	ld         ah, @(+0x4, y)
     ED0:	0517      	ld         al, @(+0x5, y)
     ED1:	1B27      	st         al, @(+0x1B, y)
     ED2:	0387      	cmp        al, @(+0x3, y)
     ED3:	04F0      	bne        +0x4 <UART_RATE_921K6+0x18:0xED7[p]>
     ED4:	0617      	ld         al, @(+0x6, y)
     ED5:	E085      	cmp        al, @0xFFE0 <register ah>
     ED6:	07F4      	beq        +0x7 <UART_RATE_921K6+0x1E:0xEDD[p]>
     ED7:	012B      	st         x, @(+0x1, y)
     ED8:	0513      	ld         ah, @(+0x5, y)
     ED9:	061B      	ld         x, @(+0x6, y)
     EDA:	042B      	st         x, @(+0x4, y)
     EDB:	0323      	st         ah, @(+0x3, y)
     EDC:	E3E0      	bra        -0x1D <UART_RATE_921K6:0xEBF[p]>
     EDD:	7E00      	**prefx    0x7E
     EDE:	459C      	bsr        +0x7E45 <TimeGet32:0x8D23[p]>
     EDF:	0800      	**prefx    0x8
     EE0:	FFC0      	and        ah, #0x7FF
     EE1:	1D27      	st         al, @(+0x1D, y)
     EE2:	1C23      	st         ah, @(+0x1C, y)
     EE3:	0010      	ld         ah, #+0x0
     EE4:	0514      	ld         al, #+0x5
     EE5:	1D57      	sub        al, @(+0x1D, y)
     EE6:	1C63      	subc       ah, @(+0x1C, y)
     EE7:	F925      	st         al, @0xFFF9 <(scratchpad)>
     EE8:	F821      	st         ah, @0xFFF8 <(scratchpad)>
     EE9:	0010      	ld         ah, #+0x0
     EEA:	0C17      	ld         al, @(+0xC, y)
     EEB:	10A0      	asl        #0x10
     EEC:	1BB7      	or         al, @(+0x1B, y)
     EED:	0800      	**prefx    0x8
     EEE:	FFC0      	and        ah, #0x7FF
     EEF:	1F27      	st         al, @(+0x1F, y)
     EF0:	1E23      	st         ah, @(+0x1E, y)
     EF1:	F915      	ld         al, @0xFFF9 <(scratchpad)>
     EF2:	F811      	ld         ah, @0xFFF8 <(scratchpad)>
     EF3:	1F37      	add        al, @(+0x1F, y)
     EF4:	1E43      	addc       ah, @(+0x1E, y)
     EF5:	E099      	tst        @0xFFE0 <register ah>
     EF6:	03F0      	bne        +0x3 <UART_RATE_921K6+0x3A:0xEF9[p]>
     EF7:	7484      	cmp        al, #+0x74
     EF8:	94FC      	bcs        -0x6C <___libgatt_lib_db_4608+0x55:0xE8C[p]>
     EF9:	E415      	ld         al, @0xFFE4 <register uy>
     EFA:	0734      	add        al, #+0x7
     EFB:	0400      	**prefx    0x4
     EFC:	D79C      	bsr        +0x3D7 <___libgatt_lib_db_4650:0x12D3[p]>
     EFD:	3900      	**prefx    0x39
     EFE:	C919      	ld         x, @0x38C9 <patch_pending_mode+0x1>
     EFF:	D300      	**prefx    0xD3
     F00:	C938      	add        x, #-0x2D37
     F01:	2314      	ld         al, #+0x23
     F02:	0010      	ld         ah, #+0x0
     F03:	FF2B      	st         x, @(-0x1, y)
     F04:	FF9F      	bsr        @(-0x1, y)
     F05:	3900      	**prefx    0x39
     F06:	C919      	ld         x, @0x38C9 <patch_pending_mode+0x1>
     F07:	D300      	**prefx    0xD3
     F08:	C938      	add        x, #-0x2D37
     F09:	5F14      	ld         al, #+0x5F
     F0A:	0010      	ld         ah, #+0x0
     F0B:	FF2B      	st         x, @(-0x1, y)
     F0C:	FF9F      	bsr        @(-0x1, y)
     F0D:	1717      	ld         al, @(+0x17, y)
     F0E:	5790      	smult      #+0x57
     F0F:	0010      	ld         ah, #+0x0
     F10:	E119      	ld         x, @0xFFE1 <register al>
     F11:	9700      	**prefx    0x97
     F12:	7722      	st         ah, @(-0x6889, x)
     F13:	121B      	ld         x, @(+0x12, y)
     F14:	4822      	st         ah, @(+0x48, x)
     F15:	F100      	**prefx    0xF1
     F16:	0315      	ld         al, @0xF103 <___libgatt_lib_db_1700>
     F17:	FEF0      	bne        -0x2 <UART_RATE_921K6+0x56:0xF15[p]>
     F18:	0010      	ld         ah, #+0x0
     F19:	F100      	**prefx    0xF1
     F1A:	F821      	st         ah, @0xF0F8 <___libgatt_lib_db_1699>
     F1B:	3900      	**prefx    0x39
     F1C:	C915      	ld         al, @0x38C9 <patch_pending_mode+0x1>
     F1D:	0A27      	st         al, @(+0xA, y)
     F1E:	3900      	**prefx    0x39
     F1F:	C911      	ld         ah, @0x38C9 <patch_pending_mode+0x1>
     F20:	D400      	**prefx    0xD4
     F21:	B630      	add        ah, #-0x2C4A
     F22:	1717      	ld         al, @(+0x17, y)
     F23:	FF23      	st         ah, @(-0x1, y)
     F24:	FF9F      	bsr        @(-0x1, y)
     F25:	E111      	ld         ah, @0xFFE1 <register al>
     F26:	0A17      	ld         al, @(+0xA, y)
     F27:	D400      	**prefx    0xD4
     F28:	AD34      	add        al, #-0x2C53
     F29:	0A27      	st         al, @(+0xA, y)
     F2A:	1717      	ld         al, @(+0x17, y)
     F2B:	0A9F      	bsr        @(+0xA, y)
     F2C:	E415      	ld         al, @0xFFE4 <register uy>
     F2D:	0734      	add        al, #+0x7
     F2E:	0400      	**prefx    0x4
     F2F:	989C      	bsr        +0x398 <___libgatt_lib_db_4651:0x12C7[p]>
     F30:	F600      	**prefx    0xF6
     F31:	6A19      	ld         x, @0xF66A <___libgatt_lib_db_1870>
     F32:	0B2B      	st         x, @(+0xB, y)
     F33:	0710      	ld         ah, #+0x7
     F34:	F800      	**prefx    0xF8
     F35:	5621      	st         ah, @0xF856 <___libgatt_lib_db_3128>
     F36:	4614      	ld         al, #+0x46
     F37:	F000      	**prefx    0xF0
     F38:	5625      	st         al, @0xF056 <___libgatt_lib_db_1695>
     F39:	1818      	ld         x, #+0x18
     F3A:	F600      	**prefx    0xF6
     F3B:	3729      	st         x, @0xF637 <___libgatt_lib_db_1827>
     F3C:	0010      	ld         ah, #+0x0
     F3D:	F600      	**prefx    0xF6
     F3E:	6A21      	st         ah, @0xF66A <___libgatt_lib_db_1870>
     F3F:	171B      	ld         x, @(+0x17, y)
     F40:	9700      	**prefx    0x97
     F41:	559A      	tst        @(-0x68AB, x)
     F42:	16F4      	beq        +0x16 <UART_RATE_921K6+0x99:0xF58[p]>
     F43:	F600      	**prefx    0xF6
     F44:	3411      	ld         ah, @0xF634 <___libgatt_lib_db_1765>
     F45:	0009      	**unsigned
     F46:	0CA4      	lsr        #0xC
     F47:	E099      	tst        @0xFFE0 <register ah>
     F48:	03F4      	beq        +0x3 <UART_RATE_921K6+0x8C:0xF4B[p]>
     F49:	0480      	cmp        ah, #+0x4
     F4A:	F9F0      	bne        -0x7 <UART_RATE_921K6+0x84:0xF43[p]>
     F4B:	3900      	**prefx    0x39
     F4C:	C911      	ld         ah, @0x38C9 <patch_pending_mode+0x1>
     F4D:	B900      	**prefx    0xB9
     F4E:	4130      	add        ah, #-0x46BF
     F4F:	1717      	ld         al, @(+0x17, y)
     F50:	FF23      	st         ah, @(-0x1, y)
     F51:	FF9F      	bsr        @(-0x1, y)
     F52:	0434      	add        al, #+0x4
     F53:	0040      	addc       ah, #+0x0
     F54:	E099      	tst        @0xFFE0 <register ah>
     F55:	03F0      	bne        +0x3 <UART_RATE_921K6+0x99:0xF58[p]>
     F56:	0F84      	cmp        al, #+0xF
     F57:	ECFC      	bcs        -0x14 <UART_RATE_921K6+0x84:0xF43[p]>
     F58:	0B13      	ld         ah, @(+0xB, y)
     F59:	F600      	**prefx    0xF6
     F5A:	6A21      	st         ah, @0xF66A <___libgatt_lib_db_1870>
     F5B:	E415      	ld         al, @0xFFE4 <register uy>
     F5C:	0734      	add        al, #+0x7
     F5D:	0300      	**prefx    0x3
     F5E:	759C      	bsr        +0x375 <___libgatt_lib_db_4650:0x12D3[p]>
     F5F:	0114      	ld         al, #+0x1
     F60:	17A3      	asl        @(+0x17, y)
     F61:	1627      	st         al, @(+0x16, y)
     F62:	F600      	**prefx    0xF6
     F63:	7A25      	st         al, @0xF67A <___libgatt_lib_db_1952>
     F64:	0014      	ld         al, #+0x0
     F65:	F600      	**prefx    0xF6
     F66:	7A25      	st         al, @0xF67A <___libgatt_lib_db_1952>
     F67:	179B      	tst        @(+0x17, y)
     F68:	02F0      	bne        +0x2 <UART_RATE_921K6+0xAB:0xF6A[p]>
     F69:	0114      	ld         al, #+0x1
     F6A:	F600      	**prefx    0xF6
     F6B:	3C25      	st         al, @0xF63C <___libgatt_lib_db_1754>
     F6C:	3900      	**prefx    0x39
     F6D:	C911      	ld         ah, @0x38C9 <patch_pending_mode+0x1>
     F6E:	D300      	**prefx    0xD3
     F6F:	DE30      	add        ah, #-0x2D22
     F70:	6714      	ld         al, #+0x67
     F71:	FF23      	st         ah, @(-0x1, y)
     F72:	FF9F      	bsr        @(-0x1, y)
     F73:	1527      	st         al, @(+0x15, y)
     F74:	3900      	**prefx    0x39
     F75:	C919      	ld         x, @0x38C9 <patch_pending_mode+0x1>
     F76:	D300      	**prefx    0xD3
     F77:	C938      	add        x, #-0x2D37
     F78:	6714      	ld         al, #+0x67
     F79:	0010      	ld         ah, #+0x0
     F7A:	FF2B      	st         x, @(-0x1, y)
     F7B:	FF9F      	bsr        @(-0x1, y)
     F7C:	0110      	ld         ah, #+0x1
     F7D:	F600      	**prefx    0xF6
     F7E:	6B21      	st         ah, @0xF66B <___libgatt_lib_db_1866>
     F7F:	0014      	ld         al, #+0x0
     F80:	F600      	**prefx    0xF6
     F81:	6B25      	st         al, @0xF66B <___libgatt_lib_db_1866>
     F82:	7E00      	**prefx    0x7E
     F83:	A09C      	bsr        +0x7DA0 <TimeGet32:0x8D23[p]>
     F84:	1427      	st         al, @(+0x14, y)
     F85:	1323      	st         ah, @(+0x13, y)
     F86:	17E0      	bra        +0x17 <UART_RATE_921K6+0xDE:0xF9D[p]>
     F87:	7E00      	**prefx    0x7E
     F88:	9B9C      	bsr        +0x7D9B <TimeGet32:0x8D23[p]>
     F89:	1127      	st         al, @(+0x11, y)
     F8A:	1023      	st         ah, @(+0x10, y)
     F8B:	1117      	ld         al, @(+0x11, y)
     F8C:	1013      	ld         ah, @(+0x10, y)
     F8D:	1457      	sub        al, @(+0x14, y)
     F8E:	1363      	subc       ah, @(+0x13, y)
     F8F:	E099      	tst        @0xFFE0 <register ah>
     F90:	03F0      	bne        +0x3 <UART_RATE_921K6+0xD4:0xF93[p]>
     F91:	6584      	cmp        al, #+0x65
     F92:	0BFC      	bcs        +0xB <UART_RATE_921K6+0xDE:0xF9D[p]>
     F93:	0318      	ld         x, #+0x3
     F94:	F100      	**prefx    0xF1
     F95:	F829      	st         x, @0xF0F8 <___libgatt_lib_db_1699>
     F96:	0010      	ld         ah, #+0x0
     F97:	F100      	**prefx    0xF1
     F98:	F821      	st         ah, @0xF0F8 <___libgatt_lib_db_1699>
     F99:	111B      	ld         x, @(+0x11, y)
     F9A:	142B      	st         x, @(+0x14, y)
     F9B:	1017      	ld         al, @(+0x10, y)
     F9C:	1327      	st         al, @(+0x13, y)
     F9D:	F600      	**prefx    0xF6
     F9E:	2315      	ld         al, @0xF623 <___libgatt_lib_db_1980>
     F9F:	02C4      	and        al, #0x2
     FA0:	E7F0      	bne        -0x19 <UART_RATE_921K6+0xC8:0xF87[p]>
     FA1:	F100      	**prefx    0xF1
     FA2:	0315      	ld         al, @0xF103 <___libgatt_lib_db_1700>
     FA3:	E4F0      	bne        -0x1C <UART_RATE_921K6+0xC8:0xF87[p]>
     FA4:	161B      	ld         x, @(+0x16, y)
     FA5:	F600      	**prefx    0xF6
     FA6:	7A29      	st         x, @0xF67A <___libgatt_lib_db_1952>
     FA7:	0010      	ld         ah, #+0x0
     FA8:	F600      	**prefx    0xF6
     FA9:	7A21      	st         ah, @0xF67A <___libgatt_lib_db_1952>
     FAA:	0314      	ld         al, #+0x3
     FAB:	F100      	**prefx    0xF1
     FAC:	F825      	st         al, @0xF0F8 <___libgatt_lib_db_1699>
     FAD:	3900      	**prefx    0x39
     FAE:	C919      	ld         x, @0x38C9 <patch_pending_mode+0x1>
     FAF:	D300      	**prefx    0xD3
     FB0:	C938      	add        x, #-0x2D37
     FB1:	6714      	ld         al, #+0x67
     FB2:	1513      	ld         ah, @(+0x15, y)
     FB3:	FF2B      	st         x, @(-0x1, y)
     FB4:	FF9F      	bsr        @(-0x1, y)
     FB5:	210F      	leave      #+0x21

0x00000FB6 <___libgatt_lib_db_4544>:
     FB6:	030B      	enter      #+0x3
     FB7:	0717      	ld         al, @(+0x7, y)
     FB8:	0127      	st         al, @(+0x1, y)
     FB9:	0217      	ld         al, @(+0x2, y)
     FBA:	BD00      	**prefx    0xBD
     FBB:	C084      	cmp        al, #-0x4340
     FBC:	1FF0      	bne        +0x1F <___libgatt_lib_db_4544+0x25:0xFDB[p]>
     FBD:	3900      	**prefx    0x39
     FBE:	C919      	ld         x, @0x38C9 <patch_pending_mode+0x1>
     FBF:	E500      	**prefx    0xE5
     FC0:	BE38      	add        x, #-0x1B42
     FC1:	0E00      	**prefx    0xE
     FC2:	0714      	ld         al, #+0xE07
     FC3:	0027      	st         al, @(0x0, y)
     FC4:	0B14      	ld         al, #+0xB
     FC5:	0210      	ld         ah, #+0x2
     FC6:	FF2B      	st         x, @(-0x1, y)
     FC7:	FF9F      	bsr        @(-0x1, y)
     FC8:	3900      	**prefx    0x39
     FC9:	C919      	ld         x, @0x38C9 <patch_pending_mode+0x1>
     FCA:	E500      	**prefx    0xE5
     FCB:	BE38      	add        x, #-0x1B42
     FCC:	0E00      	**prefx    0xE
     FCD:	E814      	ld         al, #+0xDE8
     FCE:	0027      	st         al, @(0x0, y)
     FCF:	0C14      	ld         al, #+0xC
     FD0:	0210      	ld         ah, #+0x2
     FD1:	FF2B      	st         x, @(-0x1, y)
     FD2:	FF9F      	bsr        @(-0x1, y)
     FD3:	0117      	ld         al, @(+0x1, y)
     FD4:	E411      	ld         ah, @0xFFE4 <register uy>
     FD5:	0430      	add        ah, #+0x4
     FD6:	FE00      	**prefx    0xFE
     FD7:	609C      	bsr        -0x1A0 <___libgatt_lib_db_4608:0xE37[p]>
     FD8:	BD00      	**prefx    0xBD
     FD9:	4914      	ld         al, #-0x42B7
     FDA:	0227      	st         al, @(+0x2, y)
     FDB:	030F      	leave      #+0x3

0x00000FDC <___libgatt_lib_db_4615>:
     FDC:	0C0B      	enter      #+0xC
     FDD:	3513      	ld         ah, @(+0x35, y)
     FDE:	0923      	st         ah, @(+0x9, y)
     FDF:	3417      	ld         al, @(+0x34, y)
     FE0:	0A27      	st         al, @(+0xA, y)
     FE1:	381B      	ld         x, @(+0x38, y)
     FE2:	082B      	st         x, @(+0x8, y)
     FE3:	E315      	ld         al, @0xFFE3 <register uxl>
     FE4:	5790      	smult      #+0x57
     FE5:	9700      	**prefx    0x97
     FE6:	6B34      	add        al, #-0x6895
     FE7:	0727      	st         al, @(+0x7, y)
     FE8:	E119      	ld         x, @0xFFE1 <register al>
     FE9:	0C16      	ld         al, @(+0xC, x)
     FEA:	0684      	cmp        al, #+0x6
     FEB:	0100      	**prefx    0x1
     FEC:	A3F0      	bne        +0xA3 <___libgatt_lib_db_1085+0x8F:0x108F[p]>
     FED:	099B      	tst        @(+0x9, y)
     FEE:	06F0      	bne        +0x6 <___libgatt_lib_db_4615+0x18:0xFF4[p]>
     FEF:	0A1B      	ld         x, @(+0xA, y)
     FF0:	0A16      	ld         al, @(+0xA, x)
     FF1:	08A0      	asl        #0x8
     FF2:	09B6      	or         al, @(+0x9, x)
     FF3:	09E0      	bra        +0x9 <___libgatt_lib_db_4615+0x20:0xFFC[p]>
     FF4:	0913      	ld         ah, @(+0x9, y)
     FF5:	0180      	cmp        ah, #+0x1
     FF6:	0100      	**prefx    0x1
     FF7:	98F0      	bne        +0x98 <___libgatt_lib_db_1085+0x8F:0x108F[p]>
     FF8:	0A1B      	ld         x, @(+0xA, y)
     FF9:	0616      	ld         al, @(+0x6, x)
     FFA:	08A0      	asl        #0x8
     FFB:	05B6      	or         al, @(+0x5, x)
     FFC:	0627      	st         al, @(+0x6, y)
     FFD:	3B14      	ld         al, #+0x3B
     FFE:	0300      	**prefx    0x3
     FFF:	B29C      	bsr        +0x2B2 <___libgatt_lib_db_4638:0x12B1[p]>
    1000:	0613      	ld         ah, @(+0x6, y)
    1001:	E151      	sub        ah, @0xFFE1 <register al>
    1002:	8000      	**prefx    0x80
    1003:	0080      	cmp        ah, #-0x8000
    1004:	0A2C      	bcz        +0xA <___libgatt_lib_db_1085+0xE:0x100E[p]>
    1005:	3900      	**prefx    0x39
    1006:	C919      	ld         x, @0x38C9 <patch_pending_mode+0x1>
    1007:	BE00      	**prefx    0xBE
    1008:	FC38      	add        x, #-0x4204
    1009:	0817      	ld         al, @(+0x8, y)
    100A:	0010      	ld         ah, #+0x0
    100B:	FF2B      	st         x, @(-0x1, y)
    100C:	FF9F      	bsr        @(-0x1, y)
    100D:	3E0F      	leave      #+0x3E
    100E:	099B      	tst        @(+0x9, y)
    100F:	3FF0      	bne        +0x3F <___libgatt_lib_db_1085+0x4E:0x104E[p]>
    1010:	0010      	ld         ah, #+0x0
    1011:	0023      	st         ah, @(0x0, y)
    1012:	0123      	st         ah, @(+0x1, y)
    1013:	3C14      	ld         al, #+0x3C
    1014:	0A1B      	ld         x, @(+0xA, y)
    1015:	0012      	ld         ah, @(0x0, x)
    1016:	0200      	**prefx    0x2
    1017:	2F9C      	bsr        +0x22F <___libgatt_lib_db_4642:0x1246[p]>
    1018:	0A1B      	ld         x, @(+0xA, y)
    1019:	0216      	ld         al, @(+0x2, x)
    101A:	08A0      	asl        #0x8
    101B:	E111      	ld         ah, @0xFFE1 <register al>
    101C:	01B2      	or         ah, @(+0x1, x)
    101D:	0014      	ld         al, #+0x0
    101E:	0027      	st         al, @(0x0, y)
    101F:	0127      	st         al, @(+0x1, y)
    1020:	3D14      	ld         al, #+0x3D
    1021:	0200      	**prefx    0x2
    1022:	249C      	bsr        +0x224 <___libgatt_lib_db_4642:0x1246[p]>
    1023:	0A1B      	ld         x, @(+0xA, y)
    1024:	0416      	ld         al, @(+0x4, x)
    1025:	08A0      	asl        #0x8
    1026:	E111      	ld         ah, @0xFFE1 <register al>
    1027:	03B2      	or         ah, @(+0x3, x)
    1028:	0014      	ld         al, #+0x0
    1029:	0027      	st         al, @(0x0, y)
    102A:	0127      	st         al, @(+0x1, y)
    102B:	3014      	ld         al, #+0x30
    102C:	0200      	**prefx    0x2
    102D:	199C      	bsr        +0x219 <___libgatt_lib_db_4642:0x1246[p]>
    102E:	0A1B      	ld         x, @(+0xA, y)
    102F:	0616      	ld         al, @(+0x6, x)
    1030:	08A0      	asl        #0x8
    1031:	E111      	ld         ah, @0xFFE1 <register al>
    1032:	05B2      	or         ah, @(+0x5, x)
    1033:	0014      	ld         al, #+0x0
    1034:	0027      	st         al, @(0x0, y)
    1035:	0127      	st         al, @(+0x1, y)
    1036:	3214      	ld         al, #+0x32
    1037:	0200      	**prefx    0x2
    1038:	0E9C      	bsr        +0x20E <___libgatt_lib_db_4642:0x1246[p]>
    1039:	0A1B      	ld         x, @(+0xA, y)
    103A:	0816      	ld         al, @(+0x8, x)
    103B:	08A0      	asl        #0x8
    103C:	E111      	ld         ah, @0xFFE1 <register al>
    103D:	07B2      	or         ah, @(+0x7, x)
    103E:	0014      	ld         al, #+0x0
    103F:	0027      	st         al, @(0x0, y)
    1040:	0127      	st         al, @(+0x1, y)
    1041:	3114      	ld         al, #+0x31
    1042:	0200      	**prefx    0x2
    1043:	039C      	bsr        +0x203 <___libgatt_lib_db_4642:0x1246[p]>
    1044:	0018      	ld         x, #+0x0
    1045:	002B      	st         x, @(0x0, y)
    1046:	012B      	st         x, @(+0x1, y)
    1047:	2E14      	ld         al, #+0x2E
    1048:	0613      	ld         ah, @(+0x6, y)
    1049:	0200      	**prefx    0x2
    104A:	FC9C      	bsr        +0x1FC <___libgatt_lib_db_4642:0x1246[p]>
    104B:	0810      	ld         ah, #+0x8
    104C:	0523      	st         ah, @(+0x5, y)
    104D:	1BE0      	bra        +0x1B <___libgatt_lib_db_1085+0x68:0x1068[p]>
    104E:	0514      	ld         al, #+0x5
    104F:	0027      	st         al, @(0x0, y)
    1050:	E415      	ld         al, @0xFFE4 <register uy>
    1051:	0234      	add        al, #+0x2
    1052:	0A13      	ld         ah, @(+0xA, y)
    1053:	7C00      	**prefx    0x7C
    1054:	629C      	bsr        +0x7C62 <MemCopyPack:0x8CB6[p]>
    1055:	0417      	ld         al, @(+0x4, y)
    1056:	1FC4      	and        al, #0x1F
    1057:	0427      	st         al, @(+0x4, y)
    1058:	031B      	ld         x, @(+0x3, y)
    1059:	002B      	st         x, @(0x0, y)
    105A:	0127      	st         al, @(+0x1, y)
    105B:	1514      	ld         al, #+0x15
    105C:	0213      	ld         ah, @(+0x2, y)
    105D:	0200      	**prefx    0x2
    105E:	E89C      	bsr        +0x1E8 <___libgatt_lib_db_4642:0x1246[p]>
    105F:	0010      	ld         ah, #+0x0
    1060:	0023      	st         ah, @(0x0, y)
    1061:	0123      	st         ah, @(+0x1, y)
    1062:	2F14      	ld         al, #+0x2F
    1063:	0613      	ld         ah, @(+0x6, y)
    1064:	0200      	**prefx    0x2
    1065:	E19C      	bsr        +0x1E1 <___libgatt_lib_db_4642:0x1246[p]>
    1066:	1014      	ld         al, #+0x10
    1067:	0527      	st         al, @(+0x5, y)
    1068:	5F14      	ld         al, #+0x5F
    1069:	0200      	**prefx    0x2
    106A:	479C      	bsr        +0x247 <___libgatt_lib_db_4638:0x12B1[p]>
    106B:	05B7      	or         al, @(+0x5, y)
    106C:	0527      	st         al, @(+0x5, y)
    106D:	0018      	ld         x, #+0x0
    106E:	002B      	st         x, @(0x0, y)
    106F:	012B      	st         x, @(+0x1, y)
    1070:	5F14      	ld         al, #+0x5F
    1071:	0513      	ld         ah, @(+0x5, y)
    1072:	0200      	**prefx    0x2
    1073:	D39C      	bsr        +0x1D3 <___libgatt_lib_db_4642:0x1246[p]>
    1074:	3E14      	ld         al, #+0x3E
    1075:	0200      	**prefx    0x2
    1076:	2A9C      	bsr        +0x22A <___libgatt_lib_db_4639:0x12A0[p]>
    1077:	FA21      	st         ah, @0xFFFA <(scratchpad)>
    1078:	E119      	ld         x, @0xFFE1 <register al>
    1079:	0114      	ld         al, #+0x1
    107A:	09A3      	asl        @(+0x9, y)
    107B:	E111      	ld         ah, @0xFFE1 <register al>
    107C:	10A4      	asr        #0x10
    107D:	F925      	st         al, @0xFFF9 <(scratchpad)>
    107E:	F821      	st         ah, @0xFFF8 <(scratchpad)>
    107F:	E315      	ld         al, @0xFFE3 <register uxl>
    1080:	F9B5      	or         al, @0xFFF9 <(scratchpad)>
    1081:	FA11      	ld         ah, @0xFFFA <(scratchpad)>
    1082:	F8B1      	or         ah, @0xFFF8 <(scratchpad)>
    1083:	E119      	ld         x, @0xFFE1 <register al>
    1084:	0023      	st         ah, @(0x0, y)
    1085:	0014      	ld         al, #+0x0
    1086:	0127      	st         al, @(+0x1, y)
    1087:	3E14      	ld         al, #+0x3E
    1088:	E311      	ld         ah, @0xFFE3 <register uxl>
    1089:	0200      	**prefx    0x2
    108A:	BC9C      	bsr        +0x1BC <___libgatt_lib_db_4642:0x1246[p]>
    108B:	0913      	ld         ah, @(+0x9, y)
    108C:	071B      	ld         x, @(+0x7, y)
    108D:	4B22      	st         ah, @(+0x4B, x)
    108E:	3E0F      	leave      #+0x3E
    108F:	0C0F      	leave      #+0xC

0x00001090 <___libgatt_lib_db_4626>:
    1090:	020B      	enter      #+0x2
    1091:	0617      	ld         al, @(+0x6, y)
    1092:	0027      	st         al, @(0x0, y)
    1093:	E119      	ld         x, @0xFFE1 <register al>
    1094:	0016      	ld         al, @(0x0, x)
    1095:	0C84      	cmp        al, #+0xC
    1096:	05F0      	bne        +0x5 <___libgatt_lib_db_4626+0xB:0x109B[p]>
    1097:	F800      	**prefx    0xF8
    1098:	2A9C      	bsr        -0x7D6 <IdGetLlVerBtle:0x8C2[p]>
    1099:	001B      	ld         x, @(0x0, y)
    109A:	0126      	st         al, @(+0x1, x)
    109B:	020F      	leave      #+0x2

0x0000109C <___libgatt_lib_db_4625>:
    109C:	020B      	enter      #+0x2
    109D:	0027      	st         al, @(0x0, y)
    109E:	0100      	**prefx    0x1
    109F:	C300      	**prefx    0xC3
    10A0:	249C      	bsr        +0xC324 <___libgatt_lib_db_4148:0xD3C4[p]>
    10A1:	E111      	ld         ah, @0xFFE1 <register al>
    10A2:	3900      	**prefx    0x39
    10A3:	C631      	add        ah, @0x38C6 <patch_pending>
    10A4:	7FC0      	and        ah, #0x7F
    10A5:	0017      	ld         al, @(0x0, y)
    10A6:	0100      	**prefx    0x1
    10A7:	C300      	**prefx    0xC3
    10A8:	239C      	bsr        +0xC323 <___libgatt_lib_db_4152:0xD3CB[p]>
    10A9:	0014      	ld         al, #+0x0
    10AA:	3900      	**prefx    0x39
    10AB:	C625      	st         al, @0x38C6 <patch_pending>
    10AC:	020F      	leave      #+0x2

0x000010AD <___libgatt_lib_db_4627>:
    10AD:	1C0B      	enter      #+0x1C
    10AE:	2E13      	ld         ah, @(+0x2E, y)
    10AF:	1323      	st         ah, @(+0x13, y)
    10B0:	2D17      	ld         al, @(+0x2D, y)
    10B1:	1927      	st         al, @(+0x19, y)
    10B2:	E015      	ld         al, @0xFFE0 <register ah>
    10B3:	5790      	smult      #+0x57
    10B4:	1A27      	st         al, @(+0x1A, y)
    10B5:	9700      	**prefx    0x97
    10B6:	6B34      	add        al, #-0x6895
    10B7:	0D27      	st         al, @(+0xD, y)
    10B8:	3900      	**prefx    0x39
    10B9:	C699      	tst        @0x38C6 <patch_pending>
    10BA:	0100      	**prefx    0x1
    10BB:	9AF0      	bne        +0x9A <___libgatt_lib_db_4627+0xA8:0x1155[p]>
    10BC:	1913      	ld         ah, @(+0x19, y)
    10BD:	0130      	add        ah, #+0x1
    10BE:	1223      	st         ah, @(+0x12, y)
    10BF:	191B      	ld         x, @(+0x19, y)
    10C0:	0112      	ld         ah, @(+0x1, x)
    10C1:	0009      	**unsigned
    10C2:	08A4      	lsr        #0x8
    10C3:	1FC0      	and        ah, #0x1F
    10C4:	1123      	st         ah, @(+0x11, y)
    10C5:	0230      	add        ah, #+0x2
    10C6:	0A23      	st         ah, @(+0xA, y)
    10C7:	1A1B      	ld         x, @(+0x1A, y)
    10C8:	9700      	**prefx    0x97
    10C9:	7716      	ld         al, @(-0x6889, x)
    10CA:	0484      	cmp        al, #+0x4
    10CB:	03FC      	bcs        +0x3 <___libgatt_lib_db_4627+0x21:0x10CE[p]>
    10CC:	1113      	ld         ah, @(+0x11, y)
    10CD:	0630      	add        ah, #+0x6
    10CE:	1023      	st         ah, @(+0x10, y)
    10CF:	1317      	ld         al, @(+0x13, y)
    10D0:	0100      	**prefx    0x1
    10D1:	C300      	**prefx    0xC3
    10D2:	EB9C      	bsr        +0xC2EB <___libgatt_lib_db_4149:0xD3BD[p]>
    10D3:	1827      	st         al, @(+0x18, y)
    10D4:	1317      	ld         al, @(+0x13, y)
    10D5:	0100      	**prefx    0x1
    10D6:	C300      	**prefx    0xC3
    10D7:	ED9C      	bsr        +0xC2ED <___libgatt_lib_db_4148:0xD3C4[p]>
    10D8:	181B      	ld         x, @(+0x18, y)
    10D9:	E159      	sub        x, @0xFFE1 <register al>
    10DA:	E311      	ld         ah, @0xFFE3 <register uxl>
    10DB:	FF30      	add        ah, #-0x1
    10DC:	03E8      	bpl        +0x3 <___libgatt_lib_db_4627+0x32:0x10DF[p]>
    10DD:	0100      	**prefx    0x1
    10DE:	8030      	add        ah, #+0x80
    10DF:	1083      	cmp        ah, @(+0x10, y)
    10E0:	75E4      	blt        +0x75 <___libgatt_lib_db_4627+0xA8:0x1155[p]>
    10E1:	7F80      	cmp        ah, #+0x7F
    10E2:	47F0      	bne        +0x47 <___libgatt_lib_db_4627+0x7C:0x1129[p]>
    10E3:	9700      	**prefx    0x97
    10E4:	5799      	tst        @0x9757 <le_device+0x2>
    10E5:	44F0      	bne        +0x44 <___libgatt_lib_db_4627+0x7C:0x1129[p]>
    10E6:	0D1B      	ld         x, @(+0xD, y)
    10E7:	129A      	tst        @(+0x12, x)
    10E8:	41F4      	beq        +0x41 <___libgatt_lib_db_4627+0x7C:0x1129[p]>
    10E9:	1317      	ld         al, @(+0x13, y)
    10EA:	E411      	ld         ah, @0xFFE4 <register uy>
    10EB:	0230      	add        ah, #+0x2
    10EC:	0100      	**prefx    0x1
    10ED:	C100      	**prefx    0xC1
    10EE:	309C      	bsr        +0xC130 <___libgatt_lib_db_4118:0xD21E[p]>
    10EF:	2514      	ld         al, #+0x25
    10F0:	0200      	**prefx    0x2
    10F1:	C09C      	bsr        +0x1C0 <___libgatt_lib_db_4638:0x12B1[p]>
    10F2:	0C27      	st         al, @(+0xC, y)
    10F3:	E411      	ld         ah, @0xFFE4 <register uy>
    10F4:	0630      	add        ah, #+0x6
    10F5:	0023      	st         ah, @(0x0, y)
    10F6:	3414      	ld         al, #+0x34
    10F7:	FD30      	add        ah, #-0x3
    10F8:	0200      	**prefx    0x2
    10F9:	969C      	bsr        +0x196 <___libgatt_lib_db_4641:0x128F[p]>
    10FA:	0717      	ld         al, @(+0x7, y)
    10FB:	1727      	st         al, @(+0x17, y)
    10FC:	061B      	ld         x, @(+0x6, y)
    10FD:	162B      	st         x, @(+0x16, y)
    10FE:	7C00      	**prefx    0x7C
    10FF:	249C      	bsr        +0x7C24 <TimeGet32:0x8D23[p]>
    1100:	1527      	st         al, @(+0x15, y)
    1101:	1423      	st         ah, @(+0x14, y)
    1102:	E415      	ld         al, @0xFFE4 <register uy>
    1103:	0234      	add        al, #+0x2
    1104:	0100      	**prefx    0x1
    1105:	C100      	**prefx    0xC1
    1106:	209C      	bsr        +0xC120 <___libgatt_lib_db_4123:0xD226[p]>
    1107:	0C13      	ld         ah, @(+0xC, y)
    1108:	0100      	**prefx    0x1
    1109:	CA80      	cmp        ah, #+0xCA
    110A:	1FF0      	bne        +0x1F <___libgatt_lib_db_4627+0x7C:0x1129[p]>
    110B:	A000      	**prefx    0xA0
    110C:	C011      	ld         ah, @0x9FC0 <DATA_CSTORE_START+0x3C>
    110D:	10A4      	asr        #0x10
    110E:	F925      	st         al, @0xFFF9 <(scratchpad)>
    110F:	F821      	st         ah, @0xFFF8 <(scratchpad)>
    1110:	1717      	ld         al, @(+0x17, y)
    1111:	1613      	ld         ah, @(+0x16, y)
    1112:	1557      	sub        al, @(+0x15, y)
    1113:	1463      	subc       ah, @(+0x14, y)
    1114:	F819      	ld         x, @0xFFF8 <(scratchpad)>
    1115:	E089      	cmp        x, @0xFFE0 <register ah>
    1116:	0620      	bgt        +0x6 <___libgatt_lib_db_4627+0x6F:0x111C[p]>
    1117:	E089      	cmp        x, @0xFFE0 <register ah>
    1118:	11F0      	bne        +0x11 <___libgatt_lib_db_4627+0x7C:0x1129[p]>
    1119:	F919      	ld         x, @0xFFF9 <(scratchpad)>
    111A:	E189      	cmp        x, @0xFFE1 <register al>
    111B:	0E2C      	bcz        +0xE <___libgatt_lib_db_4627+0x7C:0x1129[p]>
    111C:	F600      	**prefx    0xF6
    111D:	3D15      	ld         al, @0xF63D <___libgatt_lib_db_1819>
    111E:	1000      	**prefx    0x10
    111F:	00B4      	or         al, #+0x1000
    1120:	F600      	**prefx    0xF6
    1121:	3D25      	st         al, @0xF63D <___libgatt_lib_db_1819>
    1122:	0410      	ld         ah, #+0x4
    1123:	2823      	st         ah, @(+0x28, y)
    1124:	C900      	**prefx    0xC9
    1125:	0814      	ld         al, #-0x36F8
    1126:	1B27      	st         al, @(+0x1B, y)
    1127:	0100      	**prefx    0x1
    1128:	A8E0      	bra        +0xA8 <___libgatt_lib_db_4627+0x123:0x11D0[p]>
    1129:	121B      	ld         x, @(+0x12, y)
    112A:	009A      	tst        @(0x0, x)
    112B:	38E8      	bpl        +0x38 <___libgatt_lib_db_4627+0xB6:0x1163[p]>
    112C:	3900      	**prefx    0x39
    112D:	3419      	ld         x, @0x3934 <___libgatt_lib_db_4628>
    112E:	0010      	ld         ah, #+0x0
    112F:	0B23      	st         ah, @(+0xB, y)
    1130:	0B17      	ld         al, @(+0xB, y)
    1131:	0390      	smult      #+0x3
    1132:	F825      	st         al, @0xFFF8 <(scratchpad)>
    1133:	0016      	ld         al, @(0x0, x)
    1134:	0284      	cmp        al, #+0x2
    1135:	1AF0      	bne        +0x1A <___libgatt_lib_db_4627+0xA2:0x114F[p]>
    1136:	1313      	ld         ah, @(+0x13, y)
    1137:	0022      	st         ah, @(0x0, x)
    1138:	3900      	**prefx    0x39
    1139:	3411      	ld         ah, @0x3934 <___libgatt_lib_db_4628>
    113A:	F831      	add        ah, @0xFFF8 <(scratchpad)>
    113B:	121B      	ld         x, @(+0x12, y)
    113C:	0116      	ld         al, @(+0x1, x)
    113D:	0100      	**prefx    0x1
    113E:	FFC4      	and        al, #0xFF
    113F:	E019      	ld         x, @0xFFE0 <register ah>
    1140:	0126      	st         al, @(+0x1, x)
    1141:	3900      	**prefx    0x39
    1142:	3419      	ld         x, @0x3934 <___libgatt_lib_db_4628>
    1143:	F839      	add        x, @0xFFF8 <(scratchpad)>
    1144:	092B      	st         x, @(+0x9, y)
    1145:	1317      	ld         al, @(+0x13, y)
    1146:	0100      	**prefx    0x1
    1147:	C200      	**prefx    0xC2
    1148:	7C9C      	bsr        +0xC27C <___libgatt_lib_db_4148:0xD3C4[p]>
    1149:	091B      	ld         x, @(+0x9, y)
    114A:	0226      	st         al, @(+0x2, x)
    114B:	0B13      	ld         ah, @(+0xB, y)
    114C:	0480      	cmp        ah, #+0x4
    114D:	11FC      	bcs        +0x11 <___libgatt_lib_db_4627+0xB1:0x115E[p]>
    114E:	07E0      	bra        +0x7 <___libgatt_lib_db_4627+0xA8:0x1155[p]>
    114F:	0B17      	ld         al, @(+0xB, y)
    1150:	0134      	add        al, #+0x1
    1151:	0B27      	st         al, @(+0xB, y)
    1152:	0338      	add        x, #+0x3
    1153:	0484      	cmp        al, #+0x4
    1154:	DCF0      	bne        -0x24 <___libgatt_lib_db_4627+0x83:0x1130[p]>
    1155:	0110      	ld         ah, #+0x1
    1156:	1A1B      	ld         x, @(+0x1A, y)
    1157:	9800      	**prefx    0x98
    1158:	B222      	st         ah, @(-0x684E, x)
    1159:	0414      	ld         al, #+0x4
    115A:	2827      	st         al, @(+0x28, y)
    115B:	C900      	**prefx    0xC9
    115C:	0818      	ld         x, #-0x36F8
    115D:	72E0      	bra        +0x72 <___libgatt_lib_db_4627+0x122:0x11CF[p]>
    115E:	191B      	ld         x, @(+0x19, y)
    115F:	0112      	ld         ah, @(+0x1, x)
    1160:	8000      	**prefx    0x80
    1161:	FFC0      	and        ah, #0x7FFF
    1162:	0122      	st         ah, @(+0x1, x)
    1163:	191B      	ld         x, @(+0x19, y)
    1164:	0112      	ld         ah, @(+0x1, x)
    1165:	03C0      	and        ah, #0x3
    1166:	0E23      	st         ah, @(+0xE, y)
    1167:	2823      	st         ah, @(+0x28, y)
    1168:	E415      	ld         al, @0xFFE4 <register uy>
    1169:	0434      	add        al, #+0x4
    116A:	0100      	**prefx    0x1
    116B:	A400      	**prefx    0xA4
    116C:	2B9C      	bsr        +0xA42B <___libgatt_lib_db_3944:0xB597[p]>
    116D:	1317      	ld         al, @(+0x13, y)
    116E:	0100      	**prefx    0x1
    116F:	C300      	**prefx    0xC3
    1170:	8A9C      	bsr        +0xC28A <___libgatt_lib_db_4150:0xD3FA[p]>
    1171:	0100      	**prefx    0x1
    1172:	A400      	**prefx    0xA4
    1173:	469C      	bsr        +0xA446 <___libgatt_lib_db_3947:0xB5B9[p]>
    1174:	0F27      	st         al, @(+0xF, y)
    1175:	1317      	ld         al, @(+0x13, y)
    1176:	0100      	**prefx    0x1
    1177:	C200      	**prefx    0xC2
    1178:	4C9C      	bsr        +0xC24C <___libgatt_lib_db_4148:0xD3C4[p]>
    1179:	0F37      	add        al, @(+0xF, y)
    117A:	0827      	st         al, @(+0x8, y)
    117B:	0A17      	ld         al, @(+0xA, y)
    117C:	0027      	st         al, @(0x0, y)
    117D:	0817      	ld         al, @(+0x8, y)
    117E:	1213      	ld         ah, @(+0x12, y)
    117F:	7B00      	**prefx    0x7B
    1180:	609C      	bsr        +0x7B60 <MemCopyUnPack:0x8CE0[p]>
    1181:	1A1B      	ld         x, @(+0x1A, y)
    1182:	9700      	**prefx    0x97
    1183:	7716      	ld         al, @(-0x6889, x)
    1184:	0384      	cmp        al, #+0x3
    1185:	0E2C      	bcz        +0xE <___libgatt_lib_db_4627+0xE6:0x1193[p]>
    1186:	0E13      	ld         ah, @(+0xE, y)
    1187:	0023      	st         ah, @(0x0, y)
    1188:	0014      	ld         al, #+0x0
    1189:	0127      	st         al, @(+0x1, y)
    118A:	1317      	ld         al, @(+0x13, y)
    118B:	1113      	ld         ah, @(+0x11, y)
    118C:	0100      	**prefx    0x1
    118D:	D500      	**prefx    0xD5
    118E:	209C      	bsr        +0xD520 <___libgatt_lib_db_4316:0xE6AE[p]>
    118F:	081B      	ld         x, @(+0x8, y)
    1190:	0116      	ld         al, @(+0x1, x)
    1191:	0434      	add        al, #+0x4
    1192:	0126      	st         al, @(+0x1, x)
    1193:	E415      	ld         al, @0xFFE4 <register uy>
    1194:	0434      	add        al, #+0x4
    1195:	0100      	**prefx    0x1
    1196:	A400      	**prefx    0xA4
    1197:	099C      	bsr        +0xA409 <___libgatt_lib_db_3945:0xB5A0[p]>
    1198:	3900      	**prefx    0x39
    1199:	C899      	tst        @0x38C8 <patch_pending_mode>
    119A:	08F4      	beq        +0x8 <___libgatt_lib_db_4627+0xF5:0x11A2[p]>
    119B:	0E13      	ld         ah, @(+0xE, y)
    119C:	0380      	cmp        ah, #+0x3
    119D:	05F4      	beq        +0x5 <___libgatt_lib_db_4627+0xF5:0x11A2[p]>
    119E:	1017      	ld         al, @(+0x10, y)
    119F:	3900      	**prefx    0x39
    11A0:	C625      	st         al, @0x38C6 <patch_pending>
    11A1:	2CE0      	bra        +0x2C <___libgatt_lib_db_4627+0x120:0x11CD[p]>
    11A2:	1317      	ld         al, @(+0x13, y)
    11A3:	0100      	**prefx    0x1
    11A4:	C200      	**prefx    0xC2
    11A5:	1F9C      	bsr        +0xC21F <___libgatt_lib_db_4148:0xD3C4[p]>
    11A6:	E111      	ld         ah, @0xFFE1 <register al>
    11A7:	1033      	add        ah, @(+0x10, y)
    11A8:	7FC0      	and        ah, #0x7F
    11A9:	1317      	ld         al, @(+0x13, y)
    11AA:	0100      	**prefx    0x1
    11AB:	C200      	**prefx    0xC2
    11AC:	1F9C      	bsr        +0xC21F <___libgatt_lib_db_4152:0xD3CB[p]>
    11AD:	9700      	**prefx    0x97
    11AE:	5799      	tst        @0x9757 <le_device+0x2>
    11AF:	1EF4      	beq        +0x1E <___libgatt_lib_db_4627+0x120:0x11CD[p]>
    11B0:	1317      	ld         al, @(+0x13, y)
    11B1:	E411      	ld         ah, @0xFFE4 <register uy>
    11B2:	0230      	add        ah, #+0x2
    11B3:	0100      	**prefx    0x1
    11B4:	C000      	**prefx    0xC0
    11B5:	699C      	bsr        +0xC069 <___libgatt_lib_db_4118:0xD21E[p]>
    11B6:	E419      	ld         x, @0xFFE4 <register uy>
    11B7:	0638      	add        x, #+0x6
    11B8:	002B      	st         x, @(0x0, y)
    11B9:	3814      	ld         al, #+0x38
    11BA:	E411      	ld         ah, @0xFFE4 <register uy>
    11BB:	0330      	add        ah, #+0x3
    11BC:	0100      	**prefx    0x1
    11BD:	C100      	**prefx    0xC1
    11BE:	BF9C      	bsr        +0xC0BF <___libgatt_lib_db_4122:0xD27D[p]>
    11BF:	E415      	ld         al, @0xFFE4 <register uy>
    11C0:	0234      	add        al, #+0x2
    11C1:	0100      	**prefx    0x1
    11C2:	C000      	**prefx    0xC0
    11C3:	639C      	bsr        +0xC063 <___libgatt_lib_db_4123:0xD226[p]>
    11C4:	0613      	ld         ah, @(+0x6, y)
    11C5:	0717      	ld         al, @(+0x7, y)
    11C6:	0127      	st         al, @(+0x1, y)
    11C7:	0023      	st         ah, @(0x0, y)
    11C8:	3900      	**prefx    0x39
    11C9:	E714      	ld         al, #+0x38E7
    11CA:	0313      	ld         ah, @(+0x3, y)
    11CB:	F900      	**prefx    0xF9
    11CC:	7A9C      	bsr        -0x686 <___libgatt_lib_db_4607:0xB46[p]>
    11CD:	C900      	**prefx    0xC9
    11CE:	F618      	ld         x, #-0x370A
    11CF:	1B2B      	st         x, @(+0x1B, y)
    11D0:	1C0F      	leave      #+0x1C

0x000011D1 <___libgatt_lib_db_4632>:
    11D1:	0C0B      	enter      #+0xC
    11D2:	3900      	**prefx    0x39
    11D3:	E699      	tst        @0x38E6 <enable_lowduty_directed_adv>
    11D4:	56F4      	beq        +0x56 <___libgatt_lib_db_4632+0x59:0x122A[p]>
    11D5:	0214      	ld         al, #+0x2
    11D6:	0100      	**prefx    0x1
    11D7:	A700      	**prefx    0xA7
    11D8:	EB9C      	bsr        +0xA6EB <___libgatt_lib_db_4015:0xB8C3[p]>
    11D9:	0284      	cmp        al, #+0x2
    11DA:	06F4      	beq        +0x6 <___libgatt_lib_db_4632+0xF:0x11E0[p]>
    11DB:	CF00      	**prefx    0xCF
    11DC:	E314      	ld         al, #-0x311D
    11DD:	0B27      	st         al, @(+0xB, y)
    11DE:	0C14      	ld         al, #+0xC
    11DF:	4BE0      	bra        +0x4B <___libgatt_lib_db_4632+0x59:0x122A[p]>
    11E0:	1A1B      	ld         x, @(+0x1A, y)
    11E1:	092B      	st         x, @(+0x9, y)
    11E2:	1D17      	ld         al, @(+0x1D, y)
    11E3:	0827      	st         al, @(+0x8, y)
    11E4:	1E1B      	ld         x, @(+0x1E, y)
    11E5:	072B      	st         x, @(+0x7, y)
    11E6:	1F17      	ld         al, @(+0x1F, y)
    11E7:	0A27      	st         al, @(+0xA, y)
    11E8:	4118      	ld         x, #+0x41
    11E9:	9700      	**prefx    0x97
    11EA:	5F29      	st         x, @0x975F <le_device+0xA>
    11EB:	0817      	ld         al, @(+0x8, y)
    11EC:	9700      	**prefx    0x97
    11ED:	6325      	st         al, @0x9763 <le_device+0xE>
    11EE:	E415      	ld         al, @0xFFE4 <register uy>
    11EF:	0134      	add        al, #+0x1
    11F0:	0100      	**prefx    0x1
    11F1:	A400      	**prefx    0xA4
    11F2:	A59C      	bsr        +0xA3A5 <___libgatt_lib_db_3944:0xB597[p]>
    11F3:	A200      	**prefx    0xA2
    11F4:	B715      	ld         al, @0xA1B7 <___libgatt_lib_db_4169>
    11F5:	0100      	**prefx    0x1
    11F6:	A400      	**prefx    0xA4
    11F7:	C29C      	bsr        +0xA3C2 <___libgatt_lib_db_3947:0xB5B9[p]>
    11F8:	0627      	st         al, @(+0x6, y)
    11F9:	071B      	ld         x, @(+0x7, y)
    11FA:	9700      	**prefx    0x97
    11FB:	6229      	st         x, @0x9762 <le_device+0xD>
    11FC:	0414      	ld         al, #+0x4
    11FD:	9700      	**prefx    0x97
    11FE:	6410      	ld         ah, #-0x689C
    11FF:	0A1B      	ld         x, @(+0xA, y)
    1200:	FD09      	bc2        
    1201:	0A17      	ld         al, @(+0xA, y)
    1202:	E411      	ld         ah, @0xFFE4 <register uy>
    1203:	0330      	add        ah, #+0x3
    1204:	0100      	**prefx    0x1
    1205:	A700      	**prefx    0xA7
    1206:	119C      	bsr        +0xA711 <___libgatt_lib_db_4023:0xB917[p]>
    1207:	0617      	ld         al, @(+0x6, y)
    1208:	0834      	add        al, #+0x8
    1209:	0618      	ld         x, #+0x6
    120A:	002B      	st         x, @(0x0, y)
    120B:	E411      	ld         ah, @0xFFE4 <register uy>
    120C:	0330      	add        ah, #+0x3
    120D:	7B00      	**prefx    0x7B
    120E:	D29C      	bsr        +0x7AD2 <MemCopyUnPack:0x8CE0[p]>
    120F:	0C14      	ld         al, #+0xC
    1210:	061B      	ld         x, @(+0x6, y)
    1211:	0126      	st         al, @(+0x1, x)
    1212:	0817      	ld         al, @(+0x8, y)
    1213:	06A0      	asl        #0x6
    1214:	F825      	st         al, @0xFFF8 <(scratchpad)>
    1215:	0717      	ld         al, @(+0x7, y)
    1216:	07A0      	asl        #0x7
    1217:	F8B5      	or         al, @0xFFF8 <(scratchpad)>
    1218:	01B4      	or         al, #+0x1
    1219:	0026      	st         al, @(0x0, x)
    121A:	E415      	ld         al, @0xFFE4 <register uy>
    121B:	0134      	add        al, #+0x1
    121C:	0100      	**prefx    0x1
    121D:	A400      	**prefx    0xA4
    121E:	829C      	bsr        +0xA382 <___libgatt_lib_db_3945:0xB5A0[p]>
    121F:	091B      	ld         x, @(+0x9, y)
    1220:	F600      	**prefx    0xF6
    1221:	F229      	st         x, @0xF5F2 <___libgatt_lib_db_1825>
    1222:	F700      	**prefx    0xF7
    1223:	B715      	ld         al, @0xF6B7 <___libgatt_lib_db_1826>
    1224:	FDC4      	and        al, #0xFFFD
    1225:	F700      	**prefx    0xF7
    1226:	B725      	st         al, @0xF6B7 <___libgatt_lib_db_1826>
    1227:	CF00      	**prefx    0xCF
    1228:	DA14      	ld         al, #-0x3126
    1229:	0B27      	st         al, @(+0xB, y)
    122A:	0C0F      	leave      #+0xC

0x0000122B <___libgatt_lib_db_4633>:
    122B:	020B      	enter      #+0x2
    122C:	0014      	ld         al, #+0x0
    122D:	0027      	st         al, @(0x0, y)
    122E:	0917      	ld         al, @(+0x9, y)
    122F:	9000      	**prefx    0x90
    1230:	9184      	cmp        al, #-0x706F
    1231:	14F0      	bne        +0x14 <___libgatt_lib_db_4633+0x1A:0x1245[p]>
    1232:	0100      	**prefx    0x1
    1233:	BB00      	**prefx    0xBB
    1234:	369C      	bsr        +0xBB36 <___libgatt_lib_db_4084:0xCD6A[p]>
    1235:	0027      	st         al, @(0x0, y)
    1236:	0017      	ld         al, @(0x0, y)
    1237:	0CF0      	bne        +0xC <___libgatt_lib_db_4633+0x18:0x1243[p]>
    1238:	9300      	**prefx    0x93
    1239:	6815      	ld         al, @0x9368 <___libgatt_lib_db_73>
    123A:	0284      	cmp        al, #+0x2
    123B:	08F0      	bne        +0x8 <___libgatt_lib_db_4633+0x18:0x1243[p]>
    123C:	9300      	**prefx    0x93
    123D:	6915      	ld         al, @0x9369 <___libgatt_lib_db_73+0x1>
    123E:	0284      	cmp        al, #+0x2
    123F:	04F0      	bne        +0x4 <___libgatt_lib_db_4633+0x18:0x1243[p]>
    1240:	9000      	**prefx    0x90
    1241:	A514      	ld         al, #-0x705B
    1242:	0927      	st         al, @(+0x9, y)
    1243:	0017      	ld         al, @(0x0, y)
    1244:	0A0F      	leave      #+0xA
    1245:	020F      	leave      #+0x2

0x00001246 <___libgatt_lib_db_4642>:
    1246:	050B      	enter      #+0x5
    1247:	0027      	st         al, @(0x0, y)
    1248:	0123      	st         ah, @(+0x1, y)
    1249:	0517      	ld         al, @(+0x5, y)
    124A:	0227      	st         al, @(+0x2, y)
    124B:	0617      	ld         al, @(+0x6, y)
    124C:	0327      	st         al, @(+0x3, y)
    124D:	0100      	**prefx    0x1
    124E:	D200      	**prefx    0xD2
    124F:	589C      	bsr        +0xD258 <___libgatt_lib_db_4276:0xE4A7[p]>
    1250:	0017      	ld         al, @(0x0, y)
    1251:	F600      	**prefx    0xF6
    1252:	2C25      	st         al, @0xF62C <___libgatt_lib_db_1756>
    1253:	0117      	ld         al, @(+0x1, y)
    1254:	F600      	**prefx    0xF6
    1255:	2D25      	st         al, @0xF62D <___libgatt_lib_db_1760>
    1256:	0217      	ld         al, @(+0x2, y)
    1257:	F600      	**prefx    0xF6
    1258:	2E25      	st         al, @0xF62E <___libgatt_lib_db_1761>
    1259:	0317      	ld         al, @(+0x3, y)
    125A:	F600      	**prefx    0xF6
    125B:	2F25      	st         al, @0xF62F <___libgatt_lib_db_1762>
    125C:	0114      	ld         al, #+0x1
    125D:	F600      	**prefx    0xF6
    125E:	2B25      	st         al, @0xF62B <___libgatt_lib_db_1763>
    125F:	F600      	**prefx    0xF6
    1260:	2A11      	ld         ah, @0xF62A <___libgatt_lib_db_1755>
    1261:	F600      	**prefx    0xF6
    1262:	2A15      	ld         al, @0xF62A <___libgatt_lib_db_1755>
    1263:	E0B5      	or         al, @0xFFE0 <register ah>
    1264:	FBF4      	beq        -0x5 <___libgatt_lib_db_4642+0x19:0x125F[p]>
    1265:	0014      	ld         al, #+0x0
    1266:	F600      	**prefx    0xF6
    1267:	2B25      	st         al, @0xF62B <___libgatt_lib_db_1763>
    1268:	041B      	ld         x, @(+0x4, y)
    1269:	053C      	add        y, #+0x5
    126A:	0100      	**prefx    0x1
    126B:	D200      	**prefx    0xD2
    126C:	44E0      	bra        +0xD244 <___libgatt_lib_db_4283:0xE4B0[p]>

0x0000126D <___libgatt_lib_db_4636>:
    126D:	060B      	enter      #+0x6
    126E:	0427      	st         al, @(+0x4, y)
    126F:	E415      	ld         al, @0xFFE4 <register uy>
    1270:	579C      	bsr        +0x57 <___libgatt_lib_db_4651:0x12C7[p]>
    1271:	0714      	ld         al, #+0x7
    1272:	F800      	**prefx    0xF8
    1273:	5625      	st         al, @0xF856 <___libgatt_lib_db_3128>
    1274:	4618      	ld         x, #+0x46
    1275:	F000      	**prefx    0xF0
    1276:	5629      	st         x, @0xF056 <___libgatt_lib_db_1695>
    1277:	0417      	ld         al, @(+0x4, y)
    1278:	03A0      	asl        #0x3
    1279:	F600      	**prefx    0xF6
    127A:	3725      	st         al, @0xF637 <___libgatt_lib_db_1827>
    127B:	F600      	**prefx    0xF6
    127C:	3415      	ld         al, @0xF634 <___libgatt_lib_db_1765>
    127D:	40C4      	and        al, #0x40
    127E:	08F0      	bne        +0x8 <___libgatt_lib_db_4636+0x19:0x1286[p]>
    127F:	F600      	**prefx    0xF6
    1280:	3315      	ld         al, @0xF633 <___libgatt_lib_db_1764>
    1281:	0018      	ld         x, #+0x0
    1282:	032B      	st         x, @(+0x3, y)
    1283:	0100      	**prefx    0x1
    1284:	FFC4      	and        al, #0xFF
    1285:	03F0      	bne        +0x3 <___libgatt_lib_db_4636+0x1B:0x1288[p]>
    1286:	0114      	ld         al, #+0x1
    1287:	0327      	st         al, @(+0x3, y)
    1288:	E415      	ld         al, @0xFFE4 <register uy>
    1289:	4A9C      	bsr        +0x4A <___libgatt_lib_db_4650:0x12D3[p]>
    128A:	0317      	ld         al, @(+0x3, y)
    128B:	060F      	leave      #+0x6

0x0000128C <.LFB4>:
    128C:	F600      	**prefx    0xF6
    128D:	3C15      	ld         al, @0xF63C <___libgatt_lib_db_1754>
    128E:	DFE0      	bra        -0x21 <___libgatt_lib_db_4636:0x126D[p]>

0x0000128F <___libgatt_lib_db_4641>:
    128F:	040B      	enter      #+0x4
    1290:	0127      	st         al, @(+0x1, y)
    1291:	0223      	st         ah, @(+0x2, y)
    1292:	FA9C      	bsr        -0x6 <.LFB4:0x128C[p]>
    1293:	E199      	tst        @0xFFE1 <register al>
    1294:	FEF4      	beq        -0x2 <___libgatt_lib_db_4641+0x3:0x1292[p]>
    1295:	0417      	ld         al, @(+0x4, y)
    1296:	0027      	st         al, @(0x0, y)
    1297:	0117      	ld         al, @(+0x1, y)
    1298:	0213      	ld         ah, @(+0x2, y)
    1299:	0100      	**prefx    0x1
    129A:	C000      	**prefx    0xC0
    129B:	E29C      	bsr        +0xBFE2 <___libgatt_lib_db_4122:0xD27D[p]>
    129C:	F09C      	bsr        -0x10 <.LFB4:0x128C[p]>
    129D:	E199      	tst        @0xFFE1 <register al>
    129E:	F4F4      	beq        -0xC <___libgatt_lib_db_4641+0x3:0x1292[p]>
    129F:	040F      	leave      #+0x4

0x000012A0 <___libgatt_lib_db_4639>:
    12A0:	040B      	enter      #+0x4
    12A1:	0027      	st         al, @(0x0, y)
    12A2:	EA9C      	bsr        -0x16 <.LFB4:0x128C[p]>
    12A3:	E199      	tst        @0xFFE1 <register al>
    12A4:	FEF4      	beq        -0x2 <___libgatt_lib_db_4639+0x2:0x12A2[p]>
    12A5:	0017      	ld         al, @(0x0, y)
    12A6:	0100      	**prefx    0x1
    12A7:	C000      	**prefx    0xC0
    12A8:	0C9C      	bsr        +0xC00C <___libgatt_lib_db_4120:0xD2B4[p]>
    12A9:	0227      	st         al, @(+0x2, y)
    12AA:	0123      	st         ah, @(+0x1, y)
    12AB:	E19C      	bsr        -0x1F <.LFB4:0x128C[p]>
    12AC:	E199      	tst        @0xFFE1 <register al>
    12AD:	F5F4      	beq        -0xB <___libgatt_lib_db_4639+0x2:0x12A2[p]>
    12AE:	0217      	ld         al, @(+0x2, y)
    12AF:	0113      	ld         ah, @(+0x1, y)
    12B0:	040F      	leave      #+0x4

0x000012B1 <___libgatt_lib_db_4638>:
    12B1:	030B      	enter      #+0x3
    12B2:	0127      	st         al, @(+0x1, y)
    12B3:	D99C      	bsr        -0x27 <.LFB4:0x128C[p]>
    12B4:	E199      	tst        @0xFFE1 <register al>
    12B5:	FEF4      	beq        -0x2 <___libgatt_lib_db_4638+0x2:0x12B3[p]>
    12B6:	0117      	ld         al, @(+0x1, y)
    12B7:	0100      	**prefx    0x1
    12B8:	C000      	**prefx    0xC0
    12B9:	259C      	bsr        +0xC025 <___libgatt_lib_db_4119:0xD2DE[p]>
    12BA:	0027      	st         al, @(0x0, y)
    12BB:	D19C      	bsr        -0x2F <.LFB4:0x128C[p]>
    12BC:	E199      	tst        @0xFFE1 <register al>
    12BD:	F6F4      	beq        -0xA <___libgatt_lib_db_4638+0x2:0x12B3[p]>
    12BE:	0017      	ld         al, @(0x0, y)
    12BF:	030F      	leave      #+0x3

0x000012C0 <___libgatt_lib_db_4637>:
    12C0:	020B      	enter      #+0x2
    12C1:	0027      	st         al, @(0x0, y)
    12C2:	0017      	ld         al, @(0x0, y)
    12C3:	AA9C      	bsr        -0x56 <___libgatt_lib_db_4636:0x126D[p]>
    12C4:	E199      	tst        @0xFFE1 <register al>
    12C5:	FDF4      	beq        -0x3 <UART_SLOW_RATE_2K4+0x2:0x12C2[p]>
    12C6:	020F      	leave      #+0x2

0x000012C7 <___libgatt_lib_db_4651>:
    12C7:	010B      	enter      #+0x1
    12C8:	E119      	ld         x, @0xFFE1 <register al>
    12C9:	F800      	**prefx    0xF8
    12CA:	5615      	ld         al, @0xF856 <___libgatt_lib_db_3128>
    12CB:	0026      	st         al, @(0x0, x)
    12CC:	F000      	**prefx    0xF0
    12CD:	5615      	ld         al, @0xF056 <___libgatt_lib_db_1695>
    12CE:	0126      	st         al, @(+0x1, x)
    12CF:	F600      	**prefx    0xF6
    12D0:	3715      	ld         al, @0xF637 <___libgatt_lib_db_1827>
    12D1:	0226      	st         al, @(+0x2, x)
    12D2:	010F      	leave      #+0x1

0x000012D3 <___libgatt_lib_db_4650>:
    12D3:	010B      	enter      #+0x1
    12D4:	E119      	ld         x, @0xFFE1 <register al>
    12D5:	0016      	ld         al, @(0x0, x)
    12D6:	F800      	**prefx    0xF8
    12D7:	5625      	st         al, @0xF856 <___libgatt_lib_db_3128>
    12D8:	0116      	ld         al, @(+0x1, x)
    12D9:	F000      	**prefx    0xF0
    12DA:	5625      	st         al, @0xF056 <___libgatt_lib_db_1695>
    12DB:	0216      	ld         al, @(+0x2, x)
    12DC:	F600      	**prefx    0xF6
    12DD:	3725      	st         al, @0xF637 <___libgatt_lib_db_1827>
    12DE:	010F      	leave      #+0x1

0x000012DF <___libgatt_lib_db_4206>:
    12DF:	3900      	**prefx    0x39
    12E0:	CE99      	tst        @0x38CE <enable_lo_offset_adc_update>
    12E1:	0AF4      	beq        +0xA <___libgatt_lib_db_4206+0xC:0x12EB[p]>
    12E2:	F000      	**prefx    0xF0
    12E3:	2A15      	ld         al, @0xF02A <___libgatt_lib_db_918>
    12E4:	FF00      	**prefx    0xFF
    12E5:	00C4      	and        al, #0xFF00
    12E6:	0100      	**prefx    0x1
    12E7:	BFB4      	or         al, #+0xBF
    12E8:	F000      	**prefx    0xF0
    12E9:	2A25      	st         al, @0xF02A <___libgatt_lib_db_918>
    12EA:	08E0      	bra        +0x8 <___libgatt_lib_db_4206+0x13:0x12F2[p]>
    12EB:	0014      	ld         al, #+0x0
    12EC:	F700      	**prefx    0xF7
    12ED:	8925      	st         al, @0xF689 <___libgatt_lib_db_1907>
    12EE:	0400      	**prefx    0x4
    12EF:	FF14      	ld         al, #+0x3FF
    12F0:	F700      	**prefx    0xF7
    12F1:	8A25      	st         al, @0xF68A <___libgatt_lib_db_1906>
    12F2:	0200      	**prefx    0x2
    12F3:	0014      	ld         al, #+0x200
    12F4:	9C00      	**prefx    0x9C
    12F5:	8625      	st         al, @0x9B86 <DATA_RCLUTS_START+0x6>
    12F6:	9C00      	**prefx    0x9C
    12F7:	A625      	st         al, @0x9BA6 <DATA_RCLUTS_START+0x26>
    12F8:	0014      	ld         al, #+0x0
    12F9:	F200      	**prefx    0xF2
    12FA:	2425      	st         al, @0xF224 <___libgatt_lib_db_1596>
    12FB:	00E2      	bra        0x0, x

0x000012FC <___libgatt_lib_db_4208>:
    12FC:	0117      	ld         al, @(+0x1, y)
    12FD:	D700      	**prefx    0xD7
    12FE:	E784      	cmp        al, #-0x2919
    12FF:	0DF0      	bne        +0xD <___libgatt_lib_db_4208+0x10:0x130C[p]>
    1300:	0200      	**prefx    0x2
    1301:	4814      	ld         al, #+0x248
    1302:	F000      	**prefx    0xF0
    1303:	0F25      	st         al, @0xF00F <___libgatt_lib_db_1018>
    1304:	0100      	**prefx    0x1
    1305:	6814      	ld         al, #+0x168
    1306:	F700      	**prefx    0xF7
    1307:	8925      	st         al, @0xF689 <___libgatt_lib_db_1907>
    1308:	0300      	**prefx    0x3
    1309:	B014      	ld         al, #+0x2B0
    130A:	F700      	**prefx    0xF7
    130B:	8A25      	st         al, @0xF68A <___libgatt_lib_db_1906>
    130C:	00E2      	bra        0x0, x

0x0000130D <___libgatt_lib_db_4209>:
    130D:	020B      	enter      #+0x2
    130E:	0217      	ld         al, @(+0x2, y)
    130F:	DA00      	**prefx    0xDA
    1310:	AD84      	cmp        al, #-0x2653
    1311:	40F0      	bne        +0x40 <___libgatt_lib_db_4209+0x44:0x1351[p]>
    1312:	3317      	ld         al, @(+0x33, y)
    1313:	46F0      	bne        +0x46 <___libgatt_lib_db_4209+0x4C:0x1359[p]>
    1314:	3900      	**prefx    0x39
    1315:	CA15      	ld         al, @0x38CA <patch_pending_mode+0x2>
    1316:	F300      	**prefx    0xF3
    1317:	F234      	add        al, #-0xD0E
    1318:	FF27      	st         al, @(-0x1, y)
    1319:	FF9F      	bsr        @(-0x1, y)
    131A:	E111      	ld         ah, @0xFFE1 <register al>
    131B:	3517      	ld         al, @(+0x35, y)
    131C:	1AF0      	bne        +0x1A <___libgatt_lib_db_4209+0x29:0x1336[p]>
    131D:	F000      	**prefx    0xF0
    131E:	1D15      	ld         al, @0xF01D <___libgatt_lib_db_1003>
    131F:	F100      	**prefx    0xF1
    1320:	FFC4      	and        al, #0xF0FF
    1321:	0500      	**prefx    0x5
    1322:	00B4      	or         al, #+0x500
    1323:	F000      	**prefx    0xF0
    1324:	1D25      	st         al, @0xF01D <___libgatt_lib_db_1003>
    1325:	0200      	**prefx    0x2
    1326:	1D80      	cmp        ah, #+0x21D
    1327:	04F8      	bcc        +0x4 <___libgatt_lib_db_4209+0x1E:0x132B[p]>
    1328:	0200      	**prefx    0x2
    1329:	ED14      	ld         al, #+0x1ED
    132A:	03E0      	bra        +0x3 <___libgatt_lib_db_4209+0x20:0x132D[p]>
    132B:	0200      	**prefx    0x2
    132C:	FF14      	ld         al, #+0x1FF
    132D:	0027      	st         al, @(0x0, y)
    132E:	3900      	**prefx    0x39
    132F:	CA11      	ld         ah, @0x38CA <patch_pending_mode+0x2>
    1330:	FB00      	**prefx    0xFB
    1331:	0230      	add        ah, #-0x4FE
    1332:	0314      	ld         al, #+0x3
    1333:	FF23      	st         ah, @(-0x1, y)
    1334:	FF9F      	bsr        @(-0x1, y)
    1335:	12E0      	bra        +0x12 <___libgatt_lib_db_4209+0x3A:0x1347[p]>
    1336:	F000      	**prefx    0xF0
    1337:	1D15      	ld         al, @0xF01D <___libgatt_lib_db_1003>
    1338:	F100      	**prefx    0xF1
    1339:	FFC4      	and        al, #0xF0FF
    133A:	0600      	**prefx    0x6
    133B:	00B4      	or         al, #+0x600
    133C:	F000      	**prefx    0xF0
    133D:	1D25      	st         al, @0xF01D <___libgatt_lib_db_1003>
    133E:	0200      	**prefx    0x2
    133F:	1D80      	cmp        ah, #+0x21D
    1340:	04F8      	bcc        +0x4 <___libgatt_lib_db_4209+0x37:0x1344[p]>
    1341:	0200      	**prefx    0x2
    1342:	1214      	ld         al, #+0x212
    1343:	03E0      	bra        +0x3 <___libgatt_lib_db_4209+0x39:0x1346[p]>
    1344:	0200      	**prefx    0x2
    1345:	2714      	ld         al, #+0x227
    1346:	0027      	st         al, @(0x0, y)
    1347:	0017      	ld         al, @(0x0, y)
    1348:	3427      	st         al, @(+0x34, y)
    1349:	3900      	**prefx    0x39
    134A:	CA11      	ld         ah, @0x38CA <patch_pending_mode+0x2>
    134B:	B300      	**prefx    0xB3
    134C:	5C30      	add        ah, #-0x4CA4
    134D:	1414      	ld         al, #+0x14
    134E:	FF23      	st         ah, @(-0x1, y)
    134F:	FF9F      	bsr        @(-0x1, y)
    1350:	09E0      	bra        +0x9 <___libgatt_lib_db_4209+0x4C:0x1359[p]>
    1351:	D600      	**prefx    0xD6
    1352:	7284      	cmp        al, #-0x298E
    1353:	06F0      	bne        +0x6 <___libgatt_lib_db_4209+0x4C:0x1359[p]>
    1354:	0014      	ld         al, #+0x0
    1355:	0527      	st         al, @(+0x5, y)
    1356:	D700      	**prefx    0xD7
    1357:	8414      	ld         al, #-0x297C
    1358:	0227      	st         al, @(+0x2, y)
    1359:	020F      	leave      #+0x2

0x0000135A <.LFB10>:
    135A:	010B      	enter      #+0x1
    135B:	1384      	cmp        al, #+0x13
    135C:	0428      	ble        +0x4 <.LFB10+0x6:0x1360[p]>
    135D:	0014      	ld         al, #+0x0
    135E:	F925      	st         al, @0xFFF9 <(scratchpad)>
    135F:	0FE0      	bra        +0xF <.LFB10+0x14:0x136E[p]>
    1360:	1418      	ld         x, #+0x14
    1361:	E159      	sub        x, @0xFFE1 <register al>
    1362:	E311      	ld         ah, @0xFFE3 <register uxl>
    1363:	0730      	add        ah, #+0x7
    1364:	10A4      	asr        #0x10
    1365:	0F94      	sdiv       #+0xF
    1366:	F925      	st         al, @0xFFF9 <(scratchpad)>
    1367:	E315      	ld         al, @0xFFE3 <register uxl>
    1368:	0A90      	smult      #+0xA
    1369:	E119      	ld         x, @0xFFE1 <register al>
    136A:	0D38      	add        x, #+0xD
    136B:	E311      	ld         ah, @0xFFE3 <register uxl>
    136C:	10A4      	asr        #0x10
    136D:	1A94      	sdiv       #+0x1A
    136E:	F100      	**prefx    0xF1
    136F:	0619      	ld         x, @0xF106 <___libgatt_lib_db_2240>
    1370:	F000      	**prefx    0xF0
    1371:	00C8      	and        x, #0xF000
    1372:	E1B9      	or         x, @0xFFE1 <register al>
    1373:	06A0      	asl        #0x6
    1374:	E1B9      	or         x, @0xFFE1 <register al>
    1375:	F100      	**prefx    0xF1
    1376:	0629      	st         x, @0xF106 <___libgatt_lib_db_2240>
    1377:	3900      	**prefx    0x39
    1378:	CB19      	ld         x, @0x38CB <patch_pending_mode+0x3>
    1379:	F829      	st         x, @0xFFF8 <(scratchpad)>
    137A:	0016      	ld         al, @(0x0, x)
    137B:	F955      	sub        al, @0xFFF9 <(scratchpad)>
    137C:	F000      	**prefx    0xF0
    137D:	0025      	st         al, @0xF000 <PERSIST_MEM_END>
    137E:	02A0      	asl        #0x2
    137F:	E111      	ld         ah, @0xFFE1 <register al>
    1380:	10A4      	asr        #0x10
    1381:	2694      	sdiv       #+0x26
    1382:	1334      	add        al, #+0x13
    1383:	F700      	**prefx    0xF7
    1384:	B025      	st         al, @0xF6B0 <___libgatt_lib_db_2014>
    1385:	0316      	ld         al, @(+0x3, x)
    1386:	04A0      	asl        #0x4
    1387:	9C00      	**prefx    0x9C
    1388:	8211      	ld         ah, @0x9B82 <DATA_RCLUTS_START+0x2>
    1389:	8FC0      	and        ah, #0xFF8F
    138A:	E0B5      	or         al, @0xFFE0 <register ah>
    138B:	9C00      	**prefx    0x9C
    138C:	8225      	st         al, @0x9B82 <DATA_RCLUTS_START+0x2>
    138D:	0216      	ld         al, @(+0x2, x)
    138E:	04A0      	asl        #0x4
    138F:	9C00      	**prefx    0x9C
    1390:	8111      	ld         ah, @0x9B81 <DATA_RCLUTS_START+0x1>
    1391:	FF00      	**prefx    0xFF
    1392:	0FC0      	and        ah, #0xFF0F
    1393:	E0B5      	or         al, @0xFFE0 <register ah>
    1394:	9C00      	**prefx    0x9C
    1395:	8125      	st         al, @0x9B81 <DATA_RCLUTS_START+0x1>
    1396:	F000      	**prefx    0xF0
    1397:	0C15      	ld         al, @0xF00C <___libgatt_lib_db_1004>
    1398:	F925      	st         al, @0xFFF9 <(scratchpad)>
    1399:	0316      	ld         al, @(+0x3, x)
    139A:	04A0      	asl        #0x4
    139B:	F919      	ld         x, @0xFFF9 <(scratchpad)>
    139C:	8FC8      	and        x, #0xFF8F
    139D:	E3B5      	or         al, @0xFFE3 <register uxl>
    139E:	F000      	**prefx    0xF0
    139F:	0C25      	st         al, @0xF00C <___libgatt_lib_db_1004>
    13A0:	F000      	**prefx    0xF0
    13A1:	0B15      	ld         al, @0xF00B <___libgatt_lib_db_1387>
    13A2:	F925      	st         al, @0xFFF9 <(scratchpad)>
    13A3:	F819      	ld         x, @0xFFF8 <(scratchpad)>
    13A4:	0216      	ld         al, @(+0x2, x)
    13A5:	04A0      	asl        #0x4
    13A6:	F919      	ld         x, @0xFFF9 <(scratchpad)>
    13A7:	FF00      	**prefx    0xFF
    13A8:	0FC8      	and        x, #0xFF0F
    13A9:	E3B5      	or         al, @0xFFE3 <register uxl>
    13AA:	F000      	**prefx    0xF0
    13AB:	0B25      	st         al, @0xF00B <___libgatt_lib_db_1387>
    13AC:	F819      	ld         x, @0xFFF8 <(scratchpad)>
    13AD:	0116      	ld         al, @(+0x1, x)
    13AE:	F000      	**prefx    0xF0
    13AF:	0125      	st         al, @0xF001 <___libgatt_lib_db_1388>
    13B0:	010F      	leave      #+0x1

0x000013B1 <___libgatt_lib_db_4657>:
    13B1:	010B      	enter      #+0x1
    13B2:	0590      	smult      #+0x5
    13B3:	3800      	**prefx    0x38
    13B4:	F534      	add        al, #+0x37F5
    13B5:	3900      	**prefx    0x39
    13B6:	CB25      	st         al, @0x38CB <patch_pending_mode+0x3>
    13B7:	3900      	**prefx    0x39
    13B8:	CA15      	ld         al, @0x38CA <patch_pending_mode+0x2>
    13B9:	F900      	**prefx    0xF9
    13BA:	3B34      	add        al, #-0x6C5
    13BB:	FF27      	st         al, @(-0x1, y)
    13BC:	FF9F      	bsr        @(-0x1, y)
    13BD:	001B      	ld         x, @(0x0, y)
    13BE:	013C      	add        y, #+0x1
    13BF:	9BE0      	bra        -0x65 <.LFB10:0x135A[p]>

0x000013C0 <___libgatt_lib_db_4655>:
    13C0:	010B      	enter      #+0x1
    13C1:	3900      	**prefx    0x39
    13C2:	CB99      	tst        @0x38CB <patch_pending_mode+0x3>
    13C3:	04F0      	bne        +0x4 <___libgatt_lib_db_4655+0x7:0x13C7[p]>
    13C4:	A000      	**prefx    0xA0
    13C5:	9615      	ld         al, @0x9F96 <DATA_CSTORE_START+0x12>
    13C6:	EB9C      	bsr        -0x15 <___libgatt_lib_db_4657:0x13B1[p]>
    13C7:	2217      	ld         al, @(+0x22, y)
    13C8:	929C      	bsr        -0x6E <.LFB10:0x135A[p]>
    13C9:	010F      	leave      #+0x1

0x000013CA <___libgatt_lib_db_4205>:
    13CA:	1D00      	**prefx    0x1D
    13CB:	D014      	ld         al, #+0x1CD0
    13CC:	F200      	**prefx    0xF2
    13CD:	2725      	st         al, @0xF227 <___libgatt_lib_db_1528>
    13CE:	3C00      	**prefx    0x3C
    13CF:	0A14      	ld         al, #+0x3C0A
    13D0:	F200      	**prefx    0xF2
    13D1:	2825      	st         al, @0xF228 <___libgatt_lib_db_1529>
    13D2:	00E2      	bra        0x0, x

0x000013D3 <___libgatt_lib_db_4663>:
    13D3:	050B      	enter      #+0x5
    13D4:	0100      	**prefx    0x1
    13D5:	DF00      	**prefx    0xDF
    13D6:	E99C      	bsr        +0xDEE9 <___libgatt_lib_db_4439:0xF2BF[p]>
    13D7:	0327      	st         al, @(+0x3, y)
    13D8:	F600      	**prefx    0xF6
    13D9:	1915      	ld         al, @0xF619 <___libgatt_lib_db_1964>
    13DA:	7F00      	**prefx    0x7F
    13DB:	00C4      	and        al, #0x7F00
    13DC:	2AB4      	or         al, #+0x2A
    13DD:	F600      	**prefx    0xF6
    13DE:	1925      	st         al, @0xF619 <___libgatt_lib_db_1964>
    13DF:	4100      	**prefx    0x41
    13E0:	2914      	ld         al, #+0x4129
    13E1:	F600      	**prefx    0xF6
    13E2:	1B25      	st         al, @0xF61B <___libgatt_lib_db_1956>
    13E3:	7100      	**prefx    0x71
    13E4:	7614      	ld         al, #+0x7176
    13E5:	F600      	**prefx    0xF6
    13E6:	1A25      	st         al, @0xF61A <___libgatt_lib_db_1955>
    13E7:	5500      	**prefx    0x55
    13E8:	5514      	ld         al, #+0x5555
    13E9:	F600      	**prefx    0xF6
    13EA:	2125      	st         al, @0xF621 <___libgatt_lib_db_1966>
    13EB:	5514      	ld         al, #+0x55
    13EC:	F600      	**prefx    0xF6
    13ED:	2025      	st         al, @0xF620 <___libgatt_lib_db_1965>
    13EE:	E415      	ld         al, @0xFFE4 <register uy>
    13EF:	6410      	ld         ah, #+0x64
    13F0:	7900      	**prefx    0x79
    13F1:	469C      	bsr        +0x7946 <TimeGet48WithOffset:0x8D37[p]>
    13F2:	F600      	**prefx    0xF6
    13F3:	2618      	ld         x, #-0x9DA
    13F4:	0017      	ld         al, @(0x0, y)
    13F5:	0026      	st         al, @(0x0, x)
    13F6:	0117      	ld         al, @(+0x1, y)
    13F7:	FF26      	st         al, @(-0x1, x)
    13F8:	0217      	ld         al, @(+0x2, y)
    13F9:	F600      	**prefx    0xF6
    13FA:	2425      	st         al, @0xF624 <___libgatt_lib_db_1984>
    13FB:	6414      	ld         al, #+0x64
    13FC:	F700      	**prefx    0xF7
    13FD:	8625      	st         al, @0xF686 <___libgatt_lib_db_1982>
    13FE:	0014      	ld         al, #+0x0
    13FF:	F700      	**prefx    0xF7
    1400:	8525      	st         al, @0xF685 <___libgatt_lib_db_1981>
    1401:	0114      	ld         al, #+0x1
    1402:	F600      	**prefx    0xF6
    1403:	2225      	st         al, @0xF622 <___libgatt_lib_db_1971>
    1404:	0100      	**prefx    0x1
    1405:	9614      	ld         al, #+0x96
    1406:	0100      	**prefx    0x1
    1407:	9F00      	**prefx    0x9F
    1408:	549C      	bsr        +0x9F54 <TimeDelayUSec:0xB35C[p]>
    1409:	0314      	ld         al, #+0x3
    140A:	F600      	**prefx    0xF6
    140B:	5C25      	st         al, @0xF65C <___libgatt_lib_db_1425>
    140C:	0214      	ld         al, #+0x2
    140D:	F600      	**prefx    0xF6
    140E:	5C25      	st         al, @0xF65C <___libgatt_lib_db_1425>
    140F:	0014      	ld         al, #+0x0
    1410:	F600      	**prefx    0xF6
    1411:	5C25      	st         al, @0xF65C <___libgatt_lib_db_1425>
    1412:	3214      	ld         al, #+0x32
    1413:	0100      	**prefx    0x1
    1414:	9F00      	**prefx    0x9F
    1415:	479C      	bsr        +0x9F47 <TimeDelayUSec:0xB35C[p]>
    1416:	0214      	ld         al, #+0x2
    1417:	F600      	**prefx    0xF6
    1418:	2225      	st         al, @0xF622 <___libgatt_lib_db_1971>
    1419:	0317      	ld         al, @(+0x3, y)
    141A:	0100      	**prefx    0x1
    141B:	DF00      	**prefx    0xDF
    141C:	669C      	bsr        +0xDF66 <___libgatt_lib_db_4443:0xF382[p]>
    141D:	5414      	ld         al, #+0x54
    141E:	F000      	**prefx    0xF0
    141F:	5325      	st         al, @0xF053 <___libgatt_lib_db_4430>
    1420:	FD00      	**prefx    0xFD
    1421:	0014      	ld         al, #-0x300
    1422:	F600      	**prefx    0xF6
    1423:	4625      	st         al, @0xF646 <___libgatt_lib_db_1882>
    1424:	9114      	ld         al, #-0x6F
    1425:	F600      	**prefx    0xF6
    1426:	4725      	st         al, @0xF647 <___libgatt_lib_db_1884>
    1427:	050F      	leave      #+0x5

0x00001428 <___libgatt_lib_db_4665>:
    1428:	010B      	enter      #+0x1
    1429:	E315      	ld         al, @0xFFE3 <register uxl>
    142A:	E000      	**prefx    0xE0
    142B:	6084      	cmp        al, #-0x1FA0
    142C:	1FF0      	bne        +0x1F <___libgatt_lib_db_4665+0x23:0x144B[p]>
    142D:	0917      	ld         al, @(+0x9, y)
    142E:	E100      	**prefx    0xE1
    142F:	EA84      	cmp        al, #-0x1F16
    1430:	1BF0      	bne        +0x1B <___libgatt_lib_db_4665+0x23:0x144B[p]>
    1431:	0B13      	ld         ah, @(+0xB, y)
    1432:	3900      	**prefx    0x39
    1433:	CC15      	ld         al, @0x38CC <patch_pending_mode+0x4>
    1434:	9300      	**prefx    0x93
    1435:	A634      	add        al, #-0x6D5A
    1436:	E085      	cmp        al, @0xFFE0 <register ah>
    1437:	14F0      	bne        +0x14 <___libgatt_lib_db_4665+0x23:0x144B[p]>
    1438:	3900      	**prefx    0x39
    1439:	3515      	ld         al, @0x3935 <___libgatt_lib_db_4667>
    143A:	07F4      	beq        +0x7 <___libgatt_lib_db_4665+0x19:0x1441[p]>
    143B:	0009      	**unsigned
    143C:	2700      	**prefx    0x27
    143D:	1090      	umult      #0x2710
    143E:	0827      	st         al, @(+0x8, y)
    143F:	0723      	st         ah, @(+0x7, y)
    1440:	0BE0      	bra        +0xB <___libgatt_lib_db_4665+0x23:0x144B[p]>
    1441:	3900      	**prefx    0x39
    1442:	CC11      	ld         ah, @0x38CC <patch_pending_mode+0x4>
    1443:	E000      	**prefx    0xE0
    1444:	1930      	add        ah, #-0x1FE7
    1445:	9400      	**prefx    0x94
    1446:	7015      	ld         al, @0x9470 <tid_con_param_update>
    1447:	FF23      	st         ah, @(-0x1, y)
    1448:	FF9F      	bsr        @(-0x1, y)
    1449:	0014      	ld         al, #+0x0
    144A:	0F0F      	leave      #+0xF
    144B:	010F      	leave      #+0x1

0x0000144C <___libgatt_lib_db_4668>:
    144C:	010B      	enter      #+0x1
    144D:	E315      	ld         al, @0xFFE3 <register uxl>
    144E:	E300      	**prefx    0xE3
    144F:	DD84      	cmp        al, #-0x1D23
    1450:	07F0      	bne        +0x7 <___libgatt_lib_db_4668+0xB:0x1457[p]>
    1451:	4D15      	ld         al, @0x4D <___libgatt_lib_db_2571>
    1452:	07C4      	and        al, #0x7
    1453:	15F4      	beq        +0x15 <___libgatt_lib_db_4668+0x1C:0x1468[p]>
    1454:	0014      	ld         al, #+0x0
    1455:	0327      	st         al, @(+0x3, y)
    1456:	12E0      	bra        +0x12 <___libgatt_lib_db_4668+0x1C:0x1468[p]>
    1457:	E315      	ld         al, @0xFFE3 <register uxl>
    1458:	E300      	**prefx    0xE3
    1459:	3A84      	cmp        al, #-0x1CC6
    145A:	0EF0      	bne        +0xE <___libgatt_lib_db_4668+0x1C:0x1468[p]>
    145B:	0100      	**prefx    0x1
    145C:	D000      	**prefx    0xD0
    145D:	4A9C      	bsr        +0xD04A <___libgatt_lib_db_4276:0xE4A7[p]>
    145E:	5115      	ld         al, @0x51 <___libgatt_lib_db_2885>
    145F:	5019      	ld         x, @0x50 <___libgatt_lib_db_2559>
    1460:	E311      	ld         ah, @0xFFE3 <register uxl>
    1461:	0600      	**prefx    0x6
    1462:	00B4      	or         al, #+0x600
    1463:	5125      	st         al, @0x51 <___libgatt_lib_db_2885>
    1464:	5021      	st         ah, @0x50 <___libgatt_lib_db_2559>
    1465:	0100      	**prefx    0x1
    1466:	D000      	**prefx    0xD0
    1467:	499C      	bsr        +0xD049 <___libgatt_lib_db_4283:0xE4B0[p]>
    1468:	010F      	leave      #+0x1

0x00001469 <___libgatt_lib_db_4207>:
    1469:	1300      	**prefx    0x13
    146A:	7B14      	ld         al, #+0x137B
    146B:	F900      	**prefx    0xF9
    146C:	4225      	st         al, @0xF942 <___libgatt_lib_db_2749>
    146D:	F700      	**prefx    0xF7
    146E:	2B15      	ld         al, @0xF72B <___libgatt_lib_db_3266>
    146F:	04B4      	or         al, #+0x4
    1470:	F700      	**prefx    0xF7
    1471:	2B25      	st         al, @0xF72B <___libgatt_lib_db_3266>
    1472:	0014      	ld         al, #+0x0
    1473:	F900      	**prefx    0xF9
    1474:	4225      	st         al, @0xF942 <___libgatt_lib_db_2749>
    1475:	00E2      	bra        0x0, x

0x00001476 <___libgatt_lib_db_4670>:
    1476:	010B      	enter      #+0x1
    1477:	A000      	**prefx    0xA0
    1478:	C315      	ld         al, @0x9FC3 <DATA_CSTORE_START+0x3F>
    1479:	FE00      	**prefx    0xFE
    147A:	A125      	st         al, @0xFDA1 <___libgatt_lib_db_3063>
    147B:	0018      	ld         x, #+0x0
    147C:	9C00      	**prefx    0x9C
    147D:	C012      	ld         ah, @(-0x6440, x)
    147E:	E015      	ld         al, @0xFFE0 <register ah>
    147F:	0434      	add        al, #+0x4
    1480:	3FC4      	and        al, #0x3F
    1481:	0984      	cmp        al, #+0x9
    1482:	04F8      	bcc        +0x4 <___libgatt_lib_db_4670+0x10:0x1486[p]>
    1483:	E600      	**prefx    0xE6
    1484:	0030      	add        ah, #-0x1A00
    1485:	03E0      	bra        +0x3 <___libgatt_lib_db_4670+0x12:0x1488[p]>
    1486:	F000      	**prefx    0xF0
    1487:	0030      	add        ah, #-0x1000
    1488:	9C00      	**prefx    0x9C
    1489:	C022      	st         ah, @(-0x6440, x)
    148A:	0138      	add        x, #+0x1
    148B:	2788      	cmp        x, #+0x27
    148C:	F0F0      	bne        -0x10 <___libgatt_lib_db_4670+0x6:0x147C[p]>
    148D:	9C00      	**prefx    0x9C
    148E:	E715      	ld         al, @0x9BE7 <___libgatt_lib_db_165+0x20>
    148F:	1000      	**prefx    0x10
    1490:	0034      	add        al, #+0x1000
    1491:	9C00      	**prefx    0x9C
    1492:	E725      	st         al, @0x9BE7 <___libgatt_lib_db_165+0x20>
    1493:	0614      	ld         al, #+0x6
    1494:	9C00      	**prefx    0x9C
    1495:	8A25      	st         al, @0x9B8A <DATA_RCLUTS_START+0xA>
    1496:	9C00      	**prefx    0x9C
    1497:	AA25      	st         al, @0x9BAA <DATA_RCLUTS_START+0x2A>
    1498:	0100      	**prefx    0x1
    1499:	6814      	ld         al, #+0x168
    149A:	F700      	**prefx    0xF7
    149B:	8925      	st         al, @0xF689 <___libgatt_lib_db_1907>
    149C:	0300      	**prefx    0x3
    149D:	B014      	ld         al, #+0x2B0
    149E:	F700      	**prefx    0xF7
    149F:	8A25      	st         al, @0xF68A <___libgatt_lib_db_1906>
    14A0:	0100      	**prefx    0x1
    14A1:	C014      	ld         al, #+0xC0
    14A2:	9C00      	**prefx    0x9C
    14A3:	9125      	st         al, @0x9B91 <DATA_RCLUTS_START+0x11>
    14A4:	9C00      	**prefx    0x9C
    14A5:	B125      	st         al, @0x9BB1 <DATA_RCLUTS_START+0x31>
    14A6:	0700      	**prefx    0x7
    14A7:	0E14      	ld         al, #+0x70E
    14A8:	9C00      	**prefx    0x9C
    14A9:	8E25      	st         al, @0x9B8E <DATA_RCLUTS_START+0xE>
    14AA:	9C00      	**prefx    0x9C
    14AB:	AE25      	st         al, @0x9BAE <DATA_RCLUTS_START+0x2E>
    14AC:	0C00      	**prefx    0xC
    14AD:	1214      	ld         al, #+0xC12
    14AE:	9C00      	**prefx    0x9C
    14AF:	8F25      	st         al, @0x9B8F <DATA_RCLUTS_START+0xF>
    14B0:	9C00      	**prefx    0x9C
    14B1:	AF25      	st         al, @0x9BAF <DATA_RCLUTS_START+0x2F>
    14B2:	4014      	ld         al, #+0x40
    14B3:	9C00      	**prefx    0x9C
    14B4:	9725      	st         al, @0x9B97 <DATA_RCLUTS_START+0x17>
    14B5:	9C00      	**prefx    0x9C
    14B6:	B725      	st         al, @0x9BB7 <DATA_RCLUTS_START+0x37>
    14B7:	9B00      	**prefx    0x9B
    14B8:	7B18      	ld         x, #-0x6485
    14B9:	FC16      	ld         al, @(-0x4, x)
    14BA:	0026      	st         al, @(0x0, x)
    14BB:	FF38      	add        x, #-0x1
    14BC:	9B00      	**prefx    0x9B
    14BD:	4788      	cmp        x, #-0x64B9
    14BE:	FBF0      	bne        -0x5 <___libgatt_lib_db_4670+0x43:0x14B9[p]>
    14BF:	EC00      	**prefx    0xEC
    14C0:	3F14      	ld         al, #-0x13C1
    14C1:	FA26      	st         al, @(-0x6, x)
    14C2:	0200      	**prefx    0x2
    14C3:	3D14      	ld         al, #+0x23D
    14C4:	FD26      	st         al, @(-0x3, x)
    14C5:	EC00      	**prefx    0xEC
    14C6:	3B14      	ld         al, #-0x13C5
    14C7:	1E26      	st         al, @(+0x1E, x)
    14C8:	0200      	**prefx    0x2
    14C9:	3D14      	ld         al, #+0x23D
    14CA:	2126      	st         al, @(+0x21, x)
    14CB:	0400      	**prefx    0x4
    14CC:	0714      	ld         al, #+0x407
    14CD:	9B00      	**prefx    0x9B
    14CE:	2025      	st         al, @0x9B20 <DATA_RADIODATA_START>
    14CF:	0D00      	**prefx    0xD
    14D0:	0814      	ld         al, #+0xD08
    14D1:	9B00      	**prefx    0x9B
    14D2:	2225      	st         al, @0x9B22 <DATA_RADIODATA_START+0x2>
    14D3:	0500      	**prefx    0x5
    14D4:	2F14      	ld         al, #+0x52F
    14D5:	9B00      	**prefx    0x9B
    14D6:	2425      	st         al, @0x9B24 <DATA_RADIODATA_START+0x4>
    14D7:	0E00      	**prefx    0xE
    14D8:	1014      	ld         al, #+0xE10
    14D9:	9B00      	**prefx    0x9B
    14DA:	2625      	st         al, @0x9B26 <DATA_RADIODATA_START+0x6>
    14DB:	2134      	add        al, #+0x21
    14DC:	9B00      	**prefx    0x9B
    14DD:	2725      	st         al, @0x9B27 <DATA_RADIODATA_START+0x7>
    14DE:	010F      	leave      #+0x1

0x000014DF <___libgatt_lib_db_4673>:
    14DF:	010B      	enter      #+0x1
    14E0:	0100      	**prefx    0x1
    14E1:	E400      	**prefx    0xE4
    14E2:	569C      	bsr        +0xE456 <___libgatt_lib_db_4505:0xF938[p]>
    14E3:	E199      	tst        @0xFFE1 <register al>
    14E4:	06F0      	bne        +0x6 <___libgatt_lib_db_4673+0xB:0x14EA[p]>
    14E5:	0100      	**prefx    0x1
    14E6:	A400      	**prefx    0xA4
    14E7:	129C      	bsr        +0xA412 <___libgatt_lib_db_4006:0xB8F9[p]>
    14E8:	E199      	tst        @0xFFE1 <register al>
    14E9:	04F4      	beq        +0x4 <___libgatt_lib_db_4673+0xE:0x14ED[p]>
    14EA:	E800      	**prefx    0xE8
    14EB:	8214      	ld         al, #-0x187E
    14EC:	0027      	st         al, @(0x0, y)
    14ED:	010F      	leave      #+0x1

0x000014EE <___libgatt_lib_db_4675>:
    14EE:	1117      	ld         al, @(+0x11, y)
    14EF:	0A84      	cmp        al, #+0xA
    14F0:	02F0      	bne        +0x2 <___libgatt_lib_db_4675+0x4:0x14F2[p]>
    14F1:	130F      	leave      #+0x13
    14F2:	00E2      	bra        0x0, x

0x000014F3 <___libgatt_lib_db_4694>:
    14F3:	020B      	enter      #+0x2
    14F4:	F900      	**prefx    0xF9
    14F5:	4215      	ld         al, @0xF942 <___libgatt_lib_db_2749>
    14F6:	0027      	st         al, @(0x0, y)
    14F7:	1300      	**prefx    0x13
    14F8:	7B14      	ld         al, #+0x137B
    14F9:	F900      	**prefx    0xF9
    14FA:	4225      	st         al, @0xF942 <___libgatt_lib_db_2749>
    14FB:	F700      	**prefx    0xF7
    14FC:	2815      	ld         al, @0xF728 <___libgatt_lib_db_3263>
    14FD:	F200      	**prefx    0xF2
    14FE:	FFC4      	and        al, #0xF1FF
    14FF:	F700      	**prefx    0xF7
    1500:	2825      	st         al, @0xF728 <___libgatt_lib_db_3263>
    1501:	F700      	**prefx    0xF7
    1502:	2C15      	ld         al, @0xF72C <___libgatt_lib_db_3267>
    1503:	FD00      	**prefx    0xFD
    1504:	FFC4      	and        al, #0xFCFF
    1505:	F700      	**prefx    0xF7
    1506:	2C25      	st         al, @0xF72C <___libgatt_lib_db_3267>
    1507:	3900      	**prefx    0x39
    1508:	CD15      	ld         al, @0x38CD <patch_pending_mode+0x5>
    1509:	F900      	**prefx    0xF9
    150A:	3B34      	add        al, #-0x6C5
    150B:	FF27      	st         al, @(-0x1, y)
    150C:	FF9F      	bsr        @(-0x1, y)
    150D:	9500      	**prefx    0x95
    150E:	2225      	st         al, @0x9522 <___libgatt_lib_db_95+0x9>
    150F:	2784      	cmp        al, #+0x27
    1510:	0328      	ble        +0x3 <___libgatt_lib_db_4694+0x20:0x1513[p]>
    1511:	0014      	ld         al, #+0x0
    1512:	02E0      	bra        +0x2 <___libgatt_lib_db_4694+0x21:0x1514[p]>
    1513:	0214      	ld         al, #+0x2
    1514:	F400      	**prefx    0xF4
    1515:	9D19      	ld         x, @0xF39D <___libgatt_lib_db_3238>
    1516:	09A0      	asl        #0x9
    1517:	F200      	**prefx    0xF2
    1518:	FFC8      	and        x, #0xF1FF
    1519:	E1B9      	or         x, @0xFFE1 <register al>
    151A:	F400      	**prefx    0xF4
    151B:	9D29      	st         x, @0xF39D <___libgatt_lib_db_3238>
    151C:	9500      	**prefx    0x95
    151D:	1611      	ld         ah, @0x9516 <___libgatt_lib_db_91+0x1>
    151E:	F200      	**prefx    0xF2
    151F:	FFC0      	and        ah, #0xF1FF
    1520:	E1B1      	or         ah, @0xFFE1 <register al>
    1521:	9500      	**prefx    0x95
    1522:	1621      	st         ah, @0x9516 <___libgatt_lib_db_91+0x1>
    1523:	9500      	**prefx    0x95
    1524:	1C11      	ld         ah, @0x951C <___libgatt_lib_db_95+0x3>
    1525:	F200      	**prefx    0xF2
    1526:	FFC0      	and        ah, #0xF1FF
    1527:	E0B5      	or         al, @0xFFE0 <register ah>
    1528:	9500      	**prefx    0x95
    1529:	1C25      	st         al, @0x951C <___libgatt_lib_db_95+0x3>
    152A:	0017      	ld         al, @(0x0, y)
    152B:	F900      	**prefx    0xF9
    152C:	4225      	st         al, @0xF942 <___libgatt_lib_db_2749>
    152D:	020F      	leave      #+0x2

0x0000152E <___libgatt_lib_db_4693>:
    152E:	010B      	enter      #+0x1
    152F:	0017      	ld         al, @(0x0, y)
    1530:	F400      	**prefx    0xF4
    1531:	EA84      	cmp        al, #-0xC16
    1532:	05F4      	beq        +0x5 <___libgatt_lib_db_4693+0x9:0x1537[p]>
    1533:	F400      	**prefx    0xF4
    1534:	0784      	cmp        al, #-0xBF9
    1535:	11F0      	bne        +0x11 <___libgatt_lib_db_4693+0x18:0x1546[p]>
    1536:	0FE0      	bra        +0xF <___libgatt_lib_db_4693+0x17:0x1545[p]>
    1537:	F400      	**prefx    0xF4
    1538:	FE14      	ld         al, #-0xC02
    1539:	0027      	st         al, @(0x0, y)
    153A:	3900      	**prefx    0x39
    153B:	CD19      	ld         x, @0x38CD <patch_pending_mode+0x5>
    153C:	F900      	**prefx    0xF9
    153D:	3E38      	add        x, #-0x6C2
    153E:	9500      	**prefx    0x95
    153F:	2215      	ld         al, @0x9522 <___libgatt_lib_db_95+0x9>
    1540:	0410      	ld         ah, #+0x4
    1541:	FF2B      	st         x, @(-0x1, y)
    1542:	FF9F      	bsr        @(-0x1, y)
    1543:	E199      	tst        @0xFFE1 <register al>
    1544:	02F4      	beq        +0x2 <___libgatt_lib_db_4693+0x18:0x1546[p]>
    1545:	AE9C      	bsr        -0x52 <___libgatt_lib_db_4694:0x14F3[p]>
    1546:	010F      	leave      #+0x1

0x00001547 <___libgatt_lib_db_4691>:
    1547:	020B      	enter      #+0x2
    1548:	F900      	**prefx    0xF9
    1549:	4215      	ld         al, @0xF942 <___libgatt_lib_db_2749>
    154A:	0027      	st         al, @(0x0, y)
    154B:	1300      	**prefx    0x13
    154C:	7B14      	ld         al, #+0x137B
    154D:	F900      	**prefx    0xF9
    154E:	4225      	st         al, @0xF942 <___libgatt_lib_db_2749>
    154F:	FA00      	**prefx    0xFA
    1550:	9215      	ld         al, @0xF992 <___libgatt_lib_db_738>
    1551:	02B4      	or         al, #+0x2
    1552:	FA00      	**prefx    0xFA
    1553:	9225      	st         al, @0xF992 <___libgatt_lib_db_738>
    1554:	0114      	ld         al, #+0x1
    1555:	0200      	**prefx    0x2
    1556:	1F9C      	bsr        +0x21F <___libgatt_lib_db_4708:0x1775[p]>
    1557:	9900      	**prefx    0x99
    1558:	4825      	st         al, @0x9948 <cached_vbg>
    1559:	FA00      	**prefx    0xFA
    155A:	9215      	ld         al, @0xF992 <___libgatt_lib_db_738>
    155B:	FDC4      	and        al, #0xFFFD
    155C:	FA00      	**prefx    0xFA
    155D:	9225      	st         al, @0xF992 <___libgatt_lib_db_738>
    155E:	0017      	ld         al, @(0x0, y)
    155F:	F900      	**prefx    0xF9
    1560:	4225      	st         al, @0xF942 <___libgatt_lib_db_2749>
    1561:	F300      	**prefx    0xF3
    1562:	2E14      	ld         al, #-0xCD2
    1563:	0127      	st         al, @(+0x1, y)
    1564:	020F      	leave      #+0x2

0x00001565 <___libgatt_lib_db_4692>:
    1565:	010B      	enter      #+0x1
    1566:	0117      	ld         al, @(+0x1, y)
    1567:	F825      	st         al, @0xFFF8 <(scratchpad)>
    1568:	08F0      	bne        +0x8 <___libgatt_lib_db_4692+0xB:0x1570[p]>
    1569:	A000      	**prefx    0xA0
    156A:	9D15      	ld         al, @0x9F9D <DATA_CSTORE_START+0x19>
    156B:	0284      	cmp        al, #+0x2
    156C:	04F0      	bne        +0x4 <___libgatt_lib_db_4692+0xB:0x1570[p]>
    156D:	9500      	**prefx    0x95
    156E:	1C18      	ld         x, #-0x6AE4
    156F:	03E0      	bra        +0x3 <___libgatt_lib_db_4692+0xD:0x1572[p]>
    1570:	9500      	**prefx    0x95
    1571:	1618      	ld         x, #-0x6AEA
    1572:	1300      	**prefx    0x13
    1573:	7B14      	ld         al, #+0x137B
    1574:	F900      	**prefx    0xF9
    1575:	4225      	st         al, @0xF942 <___libgatt_lib_db_2749>
    1576:	0614      	ld         al, #+0x6
    1577:	F400      	**prefx    0xF4
    1578:	9D10      	ld         ah, #-0xC63
    1579:	FD09      	bc2        
    157A:	F899      	tst        @0xFFF8 <(scratchpad)>
    157B:	05F4      	beq        +0x5 <___libgatt_lib_db_4692+0x1B:0x1580[p]>
    157C:	F000      	**prefx    0xF0
    157D:	3515      	ld         al, @0xF035 <___libgatt_lib_db_1169>
    157E:	FDC4      	and        al, #0xFFFD
    157F:	0AE0      	bra        +0xA <___libgatt_lib_db_4692+0x24:0x1589[p]>
    1580:	2014      	ld         al, #+0x20
    1581:	F000      	**prefx    0xF0
    1582:	0A10      	ld         ah, #-0xFF6
    1583:	9C00      	**prefx    0x9C
    1584:	A018      	ld         x, #-0x6460
    1585:	FD09      	bc2        
    1586:	F000      	**prefx    0xF0
    1587:	3515      	ld         al, @0xF035 <___libgatt_lib_db_1169>
    1588:	02B4      	or         al, #+0x2
    1589:	F000      	**prefx    0xF0
    158A:	3525      	st         al, @0xF035 <___libgatt_lib_db_1169>
    158B:	0014      	ld         al, #+0x0
    158C:	F900      	**prefx    0xF9
    158D:	4225      	st         al, @0xF942 <___libgatt_lib_db_2749>
    158E:	F815      	ld         al, @0xFFF8 <(scratchpad)>
    158F:	9500      	**prefx    0x95
    1590:	1525      	st         al, @0x9515 <___libgatt_lib_db_91>
    1591:	030F      	leave      #+0x3
    1592:	010F      	leave      #+0x1

0x00001593 <___libgatt_lib_db_4214>:
    1593:	070B      	enter      #+0x7
    1594:	F900      	**prefx    0xF9
    1595:	4211      	ld         ah, @0xF942 <___libgatt_lib_db_2749>
    1596:	0323      	st         ah, @(+0x3, y)
    1597:	1300      	**prefx    0x13
    1598:	7B14      	ld         al, #+0x137B
    1599:	F900      	**prefx    0xF9
    159A:	4225      	st         al, @0xF942 <___libgatt_lib_db_2749>
    159B:	FA00      	**prefx    0xFA
    159C:	9215      	ld         al, @0xF992 <___libgatt_lib_db_738>
    159D:	01B4      	or         al, #+0x1
    159E:	FA00      	**prefx    0xFA
    159F:	9225      	st         al, @0xF992 <___libgatt_lib_db_738>
    15A0:	3900      	**prefx    0x39
    15A1:	CF11      	ld         ah, @0x38CF <enable_lo_offset_adc_update+0x1>
    15A2:	FB00      	**prefx    0xFB
    15A3:	5330      	add        ah, #-0x4AD
    15A4:	0214      	ld         al, #+0x2
    15A5:	FF23      	st         ah, @(-0x1, y)
    15A6:	FF9F      	bsr        @(-0x1, y)
    15A7:	0010      	ld         ah, #+0x0
    15A8:	0523      	st         ah, @(+0x5, y)
    15A9:	0423      	st         ah, @(+0x4, y)
    15AA:	3900      	**prefx    0x39
    15AB:	CF11      	ld         ah, @0x38CF <enable_lo_offset_adc_update+0x1>
    15AC:	FB00      	**prefx    0xFB
    15AD:	5A30      	add        ah, #-0x4A6
    15AE:	0214      	ld         al, #+0x2
    15AF:	FF23      	st         ah, @(-0x1, y)
    15B0:	FF9F      	bsr        @(-0x1, y)
    15B1:	0537      	add        al, @(+0x5, y)
    15B2:	0527      	st         al, @(+0x5, y)
    15B3:	0413      	ld         ah, @(+0x4, y)
    15B4:	0130      	add        ah, #+0x1
    15B5:	0423      	st         ah, @(+0x4, y)
    15B6:	0480      	cmp        ah, #+0x4
    15B7:	F3F0      	bne        -0xD <___libgatt_lib_db_4214+0x17:0x15AA[p]>
    15B8:	FA00      	**prefx    0xFA
    15B9:	9215      	ld         al, @0xF992 <___libgatt_lib_db_738>
    15BA:	FEC4      	and        al, #0xFFFE
    15BB:	FA00      	**prefx    0xFA
    15BC:	9225      	st         al, @0xF992 <___libgatt_lib_db_738>
    15BD:	3900      	**prefx    0x39
    15BE:	CF15      	ld         al, @0x38CF <enable_lo_offset_adc_update+0x1>
    15BF:	FB00      	**prefx    0xFB
    15C0:	9734      	add        al, #-0x569
    15C1:	FF27      	st         al, @(-0x1, y)
    15C2:	FF9F      	bsr        @(-0x1, y)
    15C3:	0313      	ld         ah, @(+0x3, y)
    15C4:	F900      	**prefx    0xF9
    15C5:	4221      	st         ah, @0xF942 <___libgatt_lib_db_2749>
    15C6:	A000      	**prefx    0xA0
    15C7:	BE15      	ld         al, @0x9FBE <DATA_CSTORE_START+0x3A>
    15C8:	9400      	**prefx    0x94
    15C9:	4525      	st         al, @0x9445 <build_identifier_integer+0x1>
    15CA:	F984      	cmp        al, #-0x7
    15CB:	0524      	bge        +0x5 <___libgatt_lib_db_4214+0x3D:0x15D0[p]>
    15CC:	F914      	ld         al, #-0x7
    15CD:	9400      	**prefx    0x94
    15CE:	4525      	st         al, @0x9445 <build_identifier_integer+0x1>
    15CF:	06E0      	bra        +0x6 <___libgatt_lib_db_4214+0x42:0x15D5[p]>
    15D0:	0784      	cmp        al, #+0x7
    15D1:	0428      	ble        +0x4 <___libgatt_lib_db_4214+0x42:0x15D5[p]>
    15D2:	0718      	ld         x, #+0x7
    15D3:	9400      	**prefx    0x94
    15D4:	4529      	st         x, @0x9445 <build_identifier_integer+0x1>
    15D5:	9400      	**prefx    0x94
    15D6:	4511      	ld         ah, @0x9445 <build_identifier_integer+0x1>
    15D7:	0223      	st         ah, @(+0x2, y)
    15D8:	0F17      	ld         al, @(+0xF, y)
    15D9:	FF27      	st         al, @(-0x1, y)
    15DA:	0F1B      	ld         x, @(+0xF, y)
    15DB:	0513      	ld         ah, @(+0x5, y)
    15DC:	0009      	**unsigned
    15DD:	02A4      	lsr        #0x2
    15DE:	E015      	ld         al, @0xFFE0 <register ah>
    15DF:	0009      	**unsigned
    15E0:	0200      	**prefx    0x2
    15E1:	BE90      	umult      #0x1BE
    15E2:	FB25      	st         al, @0xFFFB <(scratchpad)>
    15E3:	FA21      	st         ah, @0xFFFA <(scratchpad)>
    15E4:	E311      	ld         ah, @0xFFE3 <register uxl>
    15E5:	0009      	**unsigned
    15E6:	01A4      	lsr        #0x1
    15E7:	F921      	st         ah, @0xFFF9 <(scratchpad)>
    15E8:	0018      	ld         x, #+0x0
    15E9:	F829      	st         x, @0xFFF8 <(scratchpad)>
    15EA:	FB15      	ld         al, @0xFFFB <(scratchpad)>
    15EB:	FA11      	ld         ah, @0xFFFA <(scratchpad)>
    15EC:	F935      	add        al, @0xFFF9 <(scratchpad)>
    15ED:	F841      	addc       ah, @0xFFF8 <(scratchpad)>
    15EE:	0127      	st         al, @(+0x1, y)
    15EF:	0023      	st         ah, @(0x0, y)
    15F0:	0014      	ld         al, #+0x0
    15F1:	FF13      	ld         ah, @(-0x1, y)
    15F2:	7700      	**prefx    0x77
    15F3:	7F9C      	bsr        +0x777F <___libgatt_lib_db_3943:0x8D72[p]>
    15F4:	0213      	ld         ah, @(+0x2, y)
    15F5:	0200      	**prefx    0x2
    15F6:	F030      	add        ah, #+0x1F0
    15F7:	E151      	sub        ah, @0xFFE1 <register al>
    15F8:	9400      	**prefx    0x94
    15F9:	4521      	st         ah, @0x9445 <build_identifier_integer+0x1>
    15FA:	D880      	cmp        ah, #-0x28
    15FB:	0524      	bge        +0x5 <___libgatt_lib_db_4214+0x6D:0x1600[p]>
    15FC:	D810      	ld         ah, #-0x28
    15FD:	9400      	**prefx    0x94
    15FE:	4521      	st         ah, @0x9445 <build_identifier_integer+0x1>
    15FF:	06E0      	bra        +0x6 <___libgatt_lib_db_4214+0x72:0x1605[p]>
    1600:	6E80      	cmp        ah, #+0x6E
    1601:	0428      	ble        +0x4 <___libgatt_lib_db_4214+0x72:0x1605[p]>
    1602:	6E14      	ld         al, #+0x6E
    1603:	9400      	**prefx    0x94
    1604:	4525      	st         al, @0x9445 <build_identifier_integer+0x1>
    1605:	3900      	**prefx    0x39
    1606:	3615      	ld         al, @0x3936 <___libgatt_lib_db_4667+0x1>
    1607:	9C84      	cmp        al, #-0x64
    1608:	05F0      	bne        +0x5 <___libgatt_lib_db_4214+0x7A:0x160D[p]>
    1609:	9400      	**prefx    0x94
    160A:	4519      	ld         x, @0x9445 <build_identifier_integer+0x1>
    160B:	3900      	**prefx    0x39
    160C:	3629      	st         x, @0x3936 <___libgatt_lib_db_4667+0x1>
    160D:	F000      	**prefx    0xF0
    160E:	3515      	ld         al, @0xF035 <___libgatt_lib_db_1169>
    160F:	02C4      	and        al, #0x2
    1610:	2FF0      	bne        +0x2F <UART_RATE_1382K4+0x20:0x163F[p]>
    1611:	9400      	**prefx    0x94
    1612:	4519      	ld         x, @0x9445 <build_identifier_integer+0x1>
    1613:	3900      	**prefx    0x39
    1614:	3611      	ld         ah, @0x3936 <___libgatt_lib_db_4667+0x1>
    1615:	E015      	ld         al, @0xFFE0 <register ah>
    1616:	FD34      	add        al, #-0x3
    1617:	E189      	cmp        x, @0xFFE1 <register al>
    1618:	04E4      	blt        +0x4 <___libgatt_lib_db_4214+0x89:0x161C[p]>
    1619:	0330      	add        ah, #+0x3
    161A:	E089      	cmp        x, @0xFFE0 <register ah>
    161B:	2428      	ble        +0x24 <UART_RATE_1382K4+0x20:0x163F[p]>
    161C:	0100      	**prefx    0x1
    161D:	6810      	ld         ah, #+0x168
    161E:	F700      	**prefx    0xF7
    161F:	8921      	st         ah, @0xF689 <___libgatt_lib_db_1907>
    1620:	0300      	**prefx    0x3
    1621:	B014      	ld         al, #+0x2B0
    1622:	F700      	**prefx    0xF7
    1623:	8A25      	st         al, @0xF68A <___libgatt_lib_db_1906>
    1624:	F000      	**prefx    0xF0
    1625:	2A15      	ld         al, @0xF02A <___libgatt_lib_db_918>
    1626:	FF00      	**prefx    0xFF
    1627:	00C4      	and        al, #0xFF00
    1628:	0100      	**prefx    0x1
    1629:	BFB4      	or         al, #+0xBF
    162A:	F000      	**prefx    0xF0
    162B:	2A25      	st         al, @0xF02A <___libgatt_lib_db_918>
    162C:	9400      	**prefx    0x94
    162D:	4511      	ld         ah, @0x9445 <build_identifier_integer+0x1>
    162E:	3900      	**prefx    0x39
    162F:	3621      	st         ah, @0x3936 <___libgatt_lib_db_4667+0x1>
    1630:	0118      	ld         x, #+0x1
    1631:	3900      	**prefx    0x39
    1632:	CE29      	st         x, @0x38CE <enable_lo_offset_adc_update>
    1633:	E230      	add        ah, #-0x1E
    1634:	10A4      	asr        #0x10
    1635:	0394      	sdiv       #+0x3
    1636:	C084      	cmp        al, #-0x40
    1637:	0224      	bge        +0x2 <UART_RATE_1382K4+0x1A:0x1639[p]>
    1638:	C014      	ld         al, #-0x40
    1639:	3F84      	cmp        al, #+0x3F
    163A:	0228      	ble        +0x2 <UART_RATE_1382K4+0x1D:0x163C[p]>
    163B:	3F14      	ld         al, #+0x3F
    163C:	F700      	**prefx    0xF7
    163D:	8D25      	st         al, @0xF68D <___libgatt_lib_db_1875>
    163E:	11E0      	bra        +0x11 <UART_RATE_1382K4+0x30:0x164F[p]>
    163F:	F000      	**prefx    0xF0
    1640:	2A15      	ld         al, @0xF02A <___libgatt_lib_db_918>
    1641:	FF00      	**prefx    0xFF
    1642:	00C4      	and        al, #0xFF00
    1643:	37B4      	or         al, #+0x37
    1644:	F000      	**prefx    0xF0
    1645:	2A25      	st         al, @0xF02A <___libgatt_lib_db_918>
    1646:	0010      	ld         ah, #+0x0
    1647:	3900      	**prefx    0x39
    1648:	CE21      	st         ah, @0x38CE <enable_lo_offset_adc_update>
    1649:	F700      	**prefx    0xF7
    164A:	8921      	st         ah, @0xF689 <___libgatt_lib_db_1907>
    164B:	0400      	**prefx    0x4
    164C:	FF14      	ld         al, #+0x3FF
    164D:	F700      	**prefx    0xF7
    164E:	8A25      	st         al, @0xF68A <___libgatt_lib_db_1906>
    164F:	9400      	**prefx    0x94
    1650:	4515      	ld         al, @0x9445 <build_identifier_integer+0x1>
    1651:	3284      	cmp        al, #+0x32
    1652:	1A28      	ble        +0x1A <UART_RATE_1382K4+0x4D:0x166C[p]>
    1653:	F600      	**prefx    0xF6
    1654:	3D15      	ld         al, @0xF63D <___libgatt_lib_db_1819>
    1655:	17EC      	bmi        +0x17 <UART_RATE_1382K4+0x4D:0x166C[p]>
    1656:	9C00      	**prefx    0x9C
    1657:	9919      	ld         x, @0x9B99 <DATA_RCLUTS_START+0x19>
    1658:	FE00      	**prefx    0xFE
    1659:	FFC8      	and        x, #0xFDFF
    165A:	9C00      	**prefx    0x9C
    165B:	9929      	st         x, @0x9B99 <DATA_RCLUTS_START+0x19>
    165C:	FF00      	**prefx    0xFF
    165D:	4B10      	ld         ah, #-0xB5
    165E:	F600      	**prefx    0xF6
    165F:	5021      	st         ah, @0xF650 <___libgatt_lib_db_1806>
    1660:	F600      	**prefx    0xF6
    1661:	3D15      	ld         al, @0xF63D <___libgatt_lib_db_1819>
    1662:	8000      	**prefx    0x80
    1663:	00B4      	or         al, #-0x8000
    1664:	F600      	**prefx    0xF6
    1665:	3D25      	st         al, @0xF63D <___libgatt_lib_db_1819>
    1666:	F600      	**prefx    0xF6
    1667:	3E15      	ld         al, @0xF63E <___libgatt_lib_db_1820>
    1668:	8000      	**prefx    0x80
    1669:	00B4      	or         al, #-0x8000
    166A:	F600      	**prefx    0xF6
    166B:	3E25      	st         al, @0xF63E <___libgatt_lib_db_1820>
    166C:	9400      	**prefx    0x94
    166D:	4515      	ld         al, @0x9445 <build_identifier_integer+0x1>
    166E:	2C84      	cmp        al, #+0x2C
    166F:	1620      	bgt        +0x16 <UART_RATE_1382K4+0x66:0x1685[p]>
    1670:	F600      	**prefx    0xF6
    1671:	3D15      	ld         al, @0xF63D <___libgatt_lib_db_1819>
    1672:	13E8      	bpl        +0x13 <UART_RATE_1382K4+0x66:0x1685[p]>
    1673:	F600      	**prefx    0xF6
    1674:	3D15      	ld         al, @0xF63D <___libgatt_lib_db_1819>
    1675:	8000      	**prefx    0x80
    1676:	FFC4      	and        al, #0x7FFF
    1677:	F600      	**prefx    0xF6
    1678:	3D25      	st         al, @0xF63D <___libgatt_lib_db_1819>
    1679:	F600      	**prefx    0xF6
    167A:	3E15      	ld         al, @0xF63E <___libgatt_lib_db_1820>
    167B:	8000      	**prefx    0x80
    167C:	FFC4      	and        al, #0x7FFF
    167D:	F600      	**prefx    0xF6
    167E:	3E25      	st         al, @0xF63E <___libgatt_lib_db_1820>
    167F:	9C00      	**prefx    0x9C
    1680:	9915      	ld         al, @0x9B99 <DATA_RCLUTS_START+0x19>
    1681:	0200      	**prefx    0x2
    1682:	00B4      	or         al, #+0x200
    1683:	9C00      	**prefx    0x9C
    1684:	9925      	st         al, @0x9B99 <DATA_RCLUTS_START+0x19>
    1685:	9400      	**prefx    0x94
    1686:	4515      	ld         al, @0x9445 <build_identifier_integer+0x1>
    1687:	3900      	**prefx    0x39
    1688:	3755      	sub        al, @0x3937 <___libgatt_lib_db_4667+0x2>
    1689:	E199      	tst        @0xFFE1 <register al>
    168A:	02E8      	bpl        +0x2 <UART_RATE_1382K4+0x6D:0x168C[p]>
    168B:	0074      	nadd       al, #+0x0
    168C:	0584      	cmp        al, #+0x5
    168D:	572C      	bcz        +0x57 <UART_RATE_1382K4+0xC5:0x16E4[p]>
    168E:	9400      	**prefx    0x94
    168F:	4519      	ld         x, @0x9445 <build_identifier_integer+0x1>
    1690:	FA29      	st         x, @0xFFFA <(scratchpad)>
    1691:	3900      	**prefx    0x39
    1692:	3729      	st         x, @0x3937 <___libgatt_lib_db_4667+0x2>
    1693:	A000      	**prefx    0xA0
    1694:	8811      	ld         ah, @0x9F88 <DATA_CSTORE_START+0x4>
    1695:	FB21      	st         ah, @0xFFFB <(scratchpad)>
    1696:	A000      	**prefx    0xA0
    1697:	C415      	ld         al, @0x9FC4 <DATA_CSTORE_START+0x40>
    1698:	04F0      	bne        +0x4 <UART_RATE_1382K4+0x7D:0x169C[p]>
    1699:	A000      	**prefx    0xA0
    169A:	C599      	tst        @0x9FC5 <DATA_CSTORE_START+0x41>
    169B:	42F4      	beq        +0x42 <UART_RATE_1382K4+0xBE:0x16DD[p]>
    169C:	FA19      	ld         x, @0xFFFA <(scratchpad)>
    169D:	E189      	cmp        x, @0xFFE1 <register al>
    169E:	0424      	bge        +0x4 <UART_RATE_1382K4+0x83:0x16A2[p]>
    169F:	A000      	**prefx    0xA0
    16A0:	C515      	ld         al, @0x9FC5 <DATA_CSTORE_START+0x41>
    16A1:	34E0      	bra        +0x34 <UART_RATE_1382K4+0xB6:0x16D5[p]>
    16A2:	0010      	ld         ah, #+0x0
    16A3:	F821      	st         ah, @0xFFF8 <(scratchpad)>
    16A4:	F815      	ld         al, @0xFFF8 <(scratchpad)>
    16A5:	2034      	add        al, #+0x20
    16A6:	01A0      	asl        #0x1
    16A7:	A000      	**prefx    0xA0
    16A8:	8434      	add        al, #-0x607C
    16A9:	F925      	st         al, @0xFFF9 <(scratchpad)>
    16AA:	F815      	ld         al, @0xFFF8 <(scratchpad)>
    16AB:	01A0      	asl        #0x1
    16AC:	E119      	ld         x, @0xFFE1 <register al>
    16AD:	FA11      	ld         ah, @0xFFFA <(scratchpad)>
    16AE:	A000      	**prefx    0xA0
    16AF:	C482      	cmp        ah, @(-0x603C, x)
    16B0:	04E4      	blt        +0x4 <UART_RATE_1382K4+0x95:0x16B4[p]>
    16B1:	A000      	**prefx    0xA0
    16B2:	C682      	cmp        ah, @(-0x603A, x)
    16B3:	0EE4      	blt        +0xE <UART_RATE_1382K4+0xA2:0x16C1[p]>
    16B4:	F815      	ld         al, @0xFFF8 <(scratchpad)>
    16B5:	0134      	add        al, #+0x1
    16B6:	F825      	st         al, @0xFFF8 <(scratchpad)>
    16B7:	2034      	add        al, #+0x20
    16B8:	01A0      	asl        #0x1
    16B9:	E119      	ld         x, @0xFFE1 <register al>
    16BA:	A000      	**prefx    0xA0
    16BB:	8438      	add        x, #-0x607C
    16BC:	F811      	ld         ah, @0xFFF8 <(scratchpad)>
    16BD:	0580      	cmp        ah, #+0x5
    16BE:	E6F0      	bne        -0x1A <UART_RATE_1382K4+0x85:0x16A4[p]>
    16BF:	FF16      	ld         al, @(-0x1, x)
    16C0:	15E0      	bra        +0x15 <UART_RATE_1382K4+0xB6:0x16D5[p]>
    16C1:	F919      	ld         x, @0xFFF9 <(scratchpad)>
    16C2:	001A      	ld         x, @(0x0, x)
    16C3:	FF2B      	st         x, @(-0x1, y)
    16C4:	F919      	ld         x, @0xFFF9 <(scratchpad)>
    16C5:	011A      	ld         x, @(+0x1, x)
    16C6:	F829      	st         x, @0xFFF8 <(scratchpad)>
    16C7:	FA11      	ld         ah, @0xFFFA <(scratchpad)>
    16C8:	FF53      	sub        ah, @(-0x1, y)
    16C9:	FA21      	st         ah, @0xFFFA <(scratchpad)>
    16CA:	F919      	ld         x, @0xFFF9 <(scratchpad)>
    16CB:	0316      	ld         al, @(+0x3, x)
    16CC:	F855      	sub        al, @0xFFF8 <(scratchpad)>
    16CD:	FA91      	smult      @0xFFFA <(scratchpad)>
    16CE:	0212      	ld         ah, @(+0x2, x)
    16CF:	FF53      	sub        ah, @(-0x1, y)
    16D0:	F921      	st         ah, @0xFFF9 <(scratchpad)>
    16D1:	E111      	ld         ah, @0xFFE1 <register al>
    16D2:	10A4      	asr        #0x10
    16D3:	F995      	sdiv       @0xFFF9 <(scratchpad)>
    16D4:	F835      	add        al, @0xFFF8 <(scratchpad)>
    16D5:	FB35      	add        al, @0xFFFB <(scratchpad)>
    16D6:	3F84      	cmp        al, #+0x3F
    16D7:	0228      	ble        +0x2 <UART_RATE_1382K4+0xBA:0x16D9[p]>
    16D8:	3F14      	ld         al, #+0x3F
    16D9:	FB25      	st         al, @0xFFFB <(scratchpad)>
    16DA:	03E8      	bpl        +0x3 <UART_RATE_1382K4+0xBE:0x16DD[p]>
    16DB:	0014      	ld         al, #+0x0
    16DC:	FB25      	st         al, @0xFFFB <(scratchpad)>
    16DD:	3900      	**prefx    0x39
    16DE:	CF11      	ld         ah, @0x38CF <enable_lo_offset_adc_update+0x1>
    16DF:	F900      	**prefx    0xF9
    16E0:	9630      	add        ah, #-0x76A
    16E1:	FB15      	ld         al, @0xFFFB <(scratchpad)>
    16E2:	FF23      	st         ah, @(-0x1, y)
    16E3:	FF9F      	bsr        @(-0x1, y)
    16E4:	1017      	ld         al, @(+0x10, y)
    16E5:	F500      	**prefx    0xF5
    16E6:	A384      	cmp        al, #-0xB5D
    16E7:	06F0      	bne        +0x6 <UART_RATE_1382K4+0xCE:0x16ED[p]>
    16E8:	FE00      	**prefx    0xFE
    16E9:	0A9C      	bsr        -0x1F6 <___libgatt_lib_db_4694:0x14F3[p]>
    16EA:	F500      	**prefx    0xF5
    16EB:	A510      	ld         ah, #-0xB5B
    16EC:	1023      	st         ah, @(+0x10, y)
    16ED:	110F      	leave      #+0x11
    16EE:	070F      	leave      #+0x7

0x000016EF <___libgatt_lib_db_4706>:
    16EF:	070B      	enter      #+0x7
    16F0:	0B17      	ld         al, @(+0xB, y)
    16F1:	04F4      	beq        +0x4 <___libgatt_lib_db_4706+0x6:0x16F5[p]>
    16F2:	0014      	ld         al, #+0x0
    16F3:	0100      	**prefx    0x1
    16F4:	80E0      	bra        +0x80 <___libgatt_lib_db_4706+0x85:0x1774[p]>
    16F5:	0E17      	ld         al, @(+0xE, y)
    16F6:	7BF4      	beq        +0x7B <___libgatt_lib_db_4706+0x82:0x1771[p]>
    16F7:	3900      	**prefx    0x39
    16F8:	D015      	ld         al, @0x38D0 <enable_lo_offset_adc_update+0x2>
    16F9:	F300      	**prefx    0xF3
    16FA:	F234      	add        al, #-0xD0E
    16FB:	FF27      	st         al, @(-0x1, y)
    16FC:	FF9F      	bsr        @(-0x1, y)
    16FD:	0527      	st         al, @(+0x5, y)
    16FE:	3900      	**prefx    0x39
    16FF:	D011      	ld         ah, @0x38D0 <enable_lo_offset_adc_update+0x2>
    1700:	F900      	**prefx    0xF9
    1701:	4D30      	add        ah, #-0x6B3
    1702:	FF23      	st         ah, @(-0x1, y)
    1703:	FF9F      	bsr        @(-0x1, y)
    1704:	1300      	**prefx    0x13
    1705:	7B10      	ld         ah, #+0x137B
    1706:	F900      	**prefx    0xF9
    1707:	4221      	st         ah, @0xF942 <___libgatt_lib_db_2749>
    1708:	F400      	**prefx    0xF4
    1709:	9E15      	ld         al, @0xF39E <___libgatt_lib_db_3239>
    170A:	01B4      	or         al, #+0x1
    170B:	F400      	**prefx    0xF4
    170C:	9E25      	st         al, @0xF39E <___libgatt_lib_db_3239>
    170D:	F400      	**prefx    0xF4
    170E:	A215      	ld         al, @0xF3A2 <___libgatt_lib_db_3243>
    170F:	F3C4      	and        al, #0xFFF3
    1710:	F400      	**prefx    0xF4
    1711:	A225      	st         al, @0xF3A2 <___libgatt_lib_db_3243>
    1712:	F400      	**prefx    0xF4
    1713:	9C15      	ld         al, @0xF39C <___libgatt_lib_db_3237>
    1714:	E0C4      	and        al, #0xFFE0
    1715:	08B4      	or         al, #+0x8
    1716:	F400      	**prefx    0xF4
    1717:	9C25      	st         al, @0xF39C <___libgatt_lib_db_3237>
    1718:	F400      	**prefx    0xF4
    1719:	9C15      	ld         al, @0xF39C <___libgatt_lib_db_3237>
    171A:	FC00      	**prefx    0xFC
    171B:	1FC4      	and        al, #0xFC1F
    171C:	F400      	**prefx    0xF4
    171D:	9C25      	st         al, @0xF39C <___libgatt_lib_db_3237>
    171E:	0714      	ld         al, #+0x7
    171F:	569C      	bsr        +0x56 <___libgatt_lib_db_4708:0x1775[p]>
    1720:	F825      	st         al, @0xFFF8 <(scratchpad)>
    1721:	F400      	**prefx    0xF4
    1722:	9C15      	ld         al, @0xF39C <___libgatt_lib_db_3237>
    1723:	E0C4      	and        al, #0xFFE0
    1724:	F400      	**prefx    0xF4
    1725:	9C25      	st         al, @0xF39C <___libgatt_lib_db_3237>
    1726:	F400      	**prefx    0xF4
    1727:	A215      	ld         al, @0xF3A2 <___libgatt_lib_db_3243>
    1728:	F3C4      	and        al, #0xFFF3
    1729:	F400      	**prefx    0xF4
    172A:	A225      	st         al, @0xF3A2 <___libgatt_lib_db_3243>
    172B:	F400      	**prefx    0xF4
    172C:	9E15      	ld         al, @0xF39E <___libgatt_lib_db_3239>
    172D:	FEC4      	and        al, #0xFFFE
    172E:	F400      	**prefx    0xF4
    172F:	9E25      	st         al, @0xF39E <___libgatt_lib_db_3239>
    1730:	0014      	ld         al, #+0x0
    1731:	F900      	**prefx    0xF9
    1732:	4225      	st         al, @0xF942 <___libgatt_lib_db_2749>
    1733:	0513      	ld         ah, @(+0x5, y)
    1734:	0009      	**unsigned
    1735:	01A4      	lsr        #0x1
    1736:	E019      	ld         x, @0xFFE0 <register ah>
    1737:	F815      	ld         al, @0xFFF8 <(scratchpad)>
    1738:	0009      	**unsigned
    1739:	0C00      	**prefx    0xC
    173A:	B890      	umult      #0xBB8
    173B:	F925      	st         al, @0xFFF9 <(scratchpad)>
    173C:	F821      	st         ah, @0xFFF8 <(scratchpad)>
    173D:	0010      	ld         ah, #+0x0
    173E:	E315      	ld         al, @0xFFE3 <register uxl>
    173F:	F935      	add        al, @0xFFF9 <(scratchpad)>
    1740:	F841      	addc       ah, @0xFFF8 <(scratchpad)>
    1741:	0127      	st         al, @(+0x1, y)
    1742:	0023      	st         ah, @(0x0, y)
    1743:	0014      	ld         al, #+0x0
    1744:	0513      	ld         ah, @(+0x5, y)
    1745:	7600      	**prefx    0x76
    1746:	2C9C      	bsr        +0x762C <___libgatt_lib_db_3943:0x8D72[p]>
    1747:	9500      	**prefx    0x95
    1748:	2625      	st         al, @0x9526 <___libgatt_lib_db_95+0xD>
    1749:	A000      	**prefx    0xA0
    174A:	B711      	ld         ah, @0x9FB7 <DATA_CSTORE_START+0x33>
    174B:	E085      	cmp        al, @0xFFE0 <register ah>
    174C:	04F8      	bcc        +0x4 <___libgatt_lib_db_4706+0x61:0x1750[p]>
    174D:	9500      	**prefx    0x95
    174E:	2581      	cmp        ah, @0x9525 <___libgatt_lib_db_95+0xC>
    174F:	08FC      	bcs        +0x8 <___libgatt_lib_db_4706+0x68:0x1757[p]>
    1750:	9500      	**prefx    0x95
    1751:	2515      	ld         al, @0x9525 <___libgatt_lib_db_95+0xC>
    1752:	E085      	cmp        al, @0xFFE0 <register ah>
    1753:	1DF8      	bcc        +0x1D <___libgatt_lib_db_4706+0x81:0x1770[p]>
    1754:	9500      	**prefx    0x95
    1755:	2681      	cmp        ah, @0x9526 <___libgatt_lib_db_95+0xD>
    1756:	1AF8      	bcc        +0x1A <___libgatt_lib_db_4706+0x81:0x1770[p]>
    1757:	9500      	**prefx    0x95
    1758:	2615      	ld         al, @0x9526 <___libgatt_lib_db_95+0xD>
    1759:	0018      	ld         x, #+0x0
    175A:	022B      	st         x, @(+0x2, y)
    175B:	E085      	cmp        al, @0xFFE0 <register ah>
    175C:	03F8      	bcc        +0x3 <___libgatt_lib_db_4706+0x70:0x175F[p]>
    175D:	0114      	ld         al, #+0x1
    175E:	0227      	st         al, @(+0x2, y)
    175F:	0423      	st         ah, @(+0x4, y)
    1760:	9500      	**prefx    0x95
    1761:	2619      	ld         x, @0x9526 <___libgatt_lib_db_95+0xD>
    1762:	032B      	st         x, @(+0x3, y)
    1763:	3900      	**prefx    0x39
    1764:	D019      	ld         x, @0x38D0 <enable_lo_offset_adc_update+0x2>
    1765:	F600      	**prefx    0xF6
    1766:	9438      	add        x, #-0xA6C
    1767:	0114      	ld         al, #+0x1
    1768:	E411      	ld         ah, @0xFFE4 <register uy>
    1769:	0230      	add        ah, #+0x2
    176A:	FF2B      	st         x, @(-0x1, y)
    176B:	FF9F      	bsr        @(-0x1, y)
    176C:	9500      	**prefx    0x95
    176D:	2611      	ld         ah, @0x9526 <___libgatt_lib_db_95+0xD>
    176E:	9500      	**prefx    0x95
    176F:	2521      	st         ah, @0x9525 <___libgatt_lib_db_95+0xC>
    1770:	0114      	ld         al, #+0x1
    1771:	FA00      	**prefx    0xFA
    1772:	0A18      	ld         x, #-0x5F6
    1773:	062B      	st         x, @(+0x6, y)
    1774:	070F      	leave      #+0x7

0x00001775 <___libgatt_lib_db_4708>:
    1775:	060B      	enter      #+0x6
    1776:	0427      	st         al, @(+0x4, y)
    1777:	0100      	**prefx    0x1
    1778:	E400      	**prefx    0xE4
    1779:	E19C      	bsr        +0xE3E1 <___libgatt_lib_db_4519:0xFB5A[p]>
    177A:	0127      	st         al, @(+0x1, y)
    177B:	0327      	st         al, @(+0x3, y)
    177C:	0227      	st         al, @(+0x2, y)
    177D:	0514      	ld         al, #+0x5
    177E:	0027      	st         al, @(0x0, y)
    177F:	10E0      	bra        +0x10 <___libgatt_lib_db_4708+0x1A:0x178F[p]>
    1780:	0417      	ld         al, @(+0x4, y)
    1781:	0100      	**prefx    0x1
    1782:	E400      	**prefx    0xE4
    1783:	D79C      	bsr        +0xE3D7 <___libgatt_lib_db_4519:0xFB5A[p]>
    1784:	011B      	ld         x, @(+0x1, y)
    1785:	E139      	add        x, @0xFFE1 <register al>
    1786:	012B      	st         x, @(+0x1, y)
    1787:	021B      	ld         x, @(+0x2, y)
    1788:	E189      	cmp        x, @0xFFE1 <register al>
    1789:	02F8      	bcc        +0x2 <___libgatt_lib_db_4708+0x16:0x178B[p]>
    178A:	0227      	st         al, @(+0x2, y)
    178B:	031B      	ld         x, @(+0x3, y)
    178C:	E189      	cmp        x, @0xFFE1 <register al>
    178D:	022C      	bcz        +0x2 <___libgatt_lib_db_4708+0x1A:0x178F[p]>
    178E:	0327      	st         al, @(+0x3, y)
    178F:	0017      	ld         al, @(0x0, y)
    1790:	FF34      	add        al, #-0x1
    1791:	0027      	st         al, @(0x0, y)
    1792:	FF84      	cmp        al, #-0x1
    1793:	EDF0      	bne        -0x13 <___libgatt_lib_db_4708+0xB:0x1780[p]>
    1794:	011B      	ld         x, @(+0x1, y)
    1795:	035B      	sub        x, @(+0x3, y)
    1796:	025B      	sub        x, @(+0x2, y)
    1797:	E311      	ld         ah, @0xFFE3 <register uxl>
    1798:	0009      	**unsigned
    1799:	02A4      	lsr        #0x2
    179A:	E015      	ld         al, @0xFFE0 <register ah>
    179B:	060F      	leave      #+0x6
